

Microchip MPLAB XC8 Assembler V2.30 build 20200825195618 
                                                                                               Fri May 30 22:21:03 2025

Microchip MPLAB XC8 C Compiler v2.30 (Free license) build 20200825195618 Og1 
     1                           	processor	18F8722
     2                           	fnconf	rparam,??,?,0
     3                           	pagewidth 120
     4                           	opt	flic
     5                           	psect	idataCOMRAM,global,class=CODE,delta=1,noexec
     6                           	psect	smallconst,global,reloc=2,class=SMALLCONST,delta=1,noexec
     7                           	psect	cinit,global,reloc=2,class=CODE,delta=1
     8                           	psect	bssCOMRAM,global,class=COMRAM,space=1,delta=1,lowdata,noexec
     9                           	psect	dataCOMRAM,global,class=COMRAM,space=1,delta=1,lowdata,noexec
    10                           	psect	bssBANK0,global,class=BANK0,space=1,delta=1,lowdata,noexec
    11                           	psect	bssBANK1,global,class=BANK1,space=1,delta=1,lowdata,noexec
    12                           	psect	bssBANK2,global,class=BANK2,space=1,delta=1,lowdata,noexec
    13                           	psect	bssBIGRAM,global,class=BIGRAM,space=1,delta=1,noexec
    14                           	psect	cstackBANK0,global,class=BANK0,space=1,delta=1,lowdata,noexec
    15                           	psect	cstackCOMRAM,global,class=COMRAM,space=1,delta=1,lowdata,noexec
    16                           	psect	text0,global,reloc=2,class=CODE,delta=1
    17                           	psect	text1,global,reloc=2,class=CODE,delta=1
    18                           	psect	text2,global,reloc=2,class=CODE,delta=1,group=1
    19                           	psect	text3,global,reloc=2,class=CODE,delta=1
    20                           	psect	text4,global,reloc=2,class=CODE,delta=1
    21                           	psect	text5,global,reloc=2,class=CODE,delta=1
    22                           	psect	text6,global,reloc=2,class=CODE,delta=1
    23                           	psect	text7,global,reloc=2,class=CODE,delta=1
    24                           	psect	text8,global,reloc=2,class=CODE,delta=1
    25                           	psect	text9,global,reloc=2,class=CODE,delta=1
    26                           	psect	text10,global,reloc=2,class=CODE,delta=1
    27                           	psect	text11,global,reloc=2,class=CODE,delta=1
    28                           	psect	text12,global,reloc=2,class=CODE,delta=1
    29                           	psect	text13,global,reloc=2,class=CODE,delta=1
    30                           	psect	text14,global,reloc=2,class=CODE,delta=1
    31                           	psect	text15,global,reloc=2,class=CODE,delta=1,group=1
    32                           	psect	text16,global,reloc=2,class=CODE,delta=1,group=1
    33                           	psect	text17,global,reloc=2,class=CODE,delta=1,group=1
    34                           	psect	text18,global,reloc=2,class=CODE,delta=1
    35                           	psect	text19,global,reloc=2,class=CODE,delta=1
    36                           	psect	text20,global,reloc=2,class=CODE,delta=1
    37                           	psect	text21,global,reloc=2,class=CODE,delta=1
    38                           	psect	text22,global,reloc=2,class=CODE,delta=1,group=1
    39                           	psect	text23,global,reloc=2,class=CODE,delta=1
    40                           	psect	text24,global,reloc=2,class=CODE,delta=1
    41                           	psect	intcode,global,reloc=2,class=CODE,delta=1
    42                           	psect	intcode_body,global,reloc=2,class=CODE,delta=1
    43                           	psect	text26,global,reloc=2,class=CODE,delta=1
    44                           	psect	text27,global,reloc=2,class=CODE,delta=1
    45                           	psect	text28,global,reloc=2,class=CODE,delta=1
    46                           	psect	text29,global,reloc=2,class=CODE,delta=1
    47                           	psect	text30,global,reloc=2,class=CODE,delta=1
    48                           	psect	intsave_regs,global,class=BIGRAM,space=1,delta=1,noexec
    49                           	psect	rparam,global,class=COMRAM,space=1,delta=1,noexec
    50                           	psect	temp,global,ovrld,common,class=COMRAM,space=1,delta=1
    51                           	psect	idloc,global,abs,ovrld,class=IDLOC,space=5,delta=1,noexec
    52                           	psect	config,global,abs,ovrld,class=CONFIG,space=4,delta=1,noexec
    53  0000                     
    54                           ; Version 2.20
    55                           ; Generated 12/02/2020 GMT
    56                           ; 
    57                           ; Copyright © 2020, Microchip Technology Inc. and its subsidiaries ("Microchip")
    58                           ; All rights reserved.
    59                           ; 
    60                           ; This software is developed by Microchip Technology Inc. and its subsidiaries ("Microch
      +                          ip").
    61                           ; 
    62                           ; Redistribution and use in source and binary forms, with or without modification, are
    63                           ; permitted provided that the following conditions are met:
    64                           ; 
    65                           ;     1. Redistributions of source code must retain the above copyright notice, this lis
      +                          t of
    66                           ;        conditions and the following disclaimer.
    67                           ; 
    68                           ;     2. Redistributions in binary form must reproduce the above copyright notice, this 
      +                          list
    69                           ;        of conditions and the following disclaimer in the documentation and/or other
    70                           ;        materials provided with the distribution.
    71                           ; 
    72                           ;     3. Microchip's name may not be used to endorse or promote products derived from th
      +                          is
    73                           ;        software without specific prior written permission.
    74                           ; 
    75                           ; THIS SOFTWARE IS PROVIDED BY MICROCHIP "AS IS" AND ANY EXPRESS OR IMPLIED WARRANTIES,
    76                           ; INCLUDING, BUT NOT LIMITED TO, THE IMPLIED WARRANTIES OF MERCHANTABILITY AND FITNESS F
      +                          OR
    77                           ; PURPOSE ARE DISCLAIMED.  IN NO EVENT SHALL MICROCHIP BE LIABLE FOR ANY DIRECT, INDIREC
      +                          T,
    78                           ; INCIDENTAL, SPECIAL, EXEMPLARY, OR CONSEQUENTIAL DAMAGES (INCLUDING BUT NOT LIMITED TO
    79                           ; PROCUREMENT OF SUBSTITUTE GOODS OR SERVICES; LOSS OF USE, DATA OR PROFITS; OR BUSINESS
    80                           ; INTERRUPTION) HOWSOEVER CAUSED AND ON ANY THEORY OF LIABILITY, WHETHER IN CONTRACT, ST
      +                          RICT
    81                           ; LIABILITY, OR TORT (INCLUDING NEGLIGENCE OR OTHERWISE) ARISING IN ANY WAY OUT OF THE U
      +                          SE OF
    82                           ; THIS SOFTWARE, EVEN IF ADVISED OF THE POSSIBILITY OF SUCH DAMAGE.
    83                           ; 
    84                           ; 
    85                           ; Code-generator required, PIC18F8722 Definitions
    86                           ; 
    87                           ; SFR Addresses
    88  0000                     
    89                           	psect	idataCOMRAM
    90  003570                     __pidataCOMRAM:
    91                           	callstack 0
    92                           
    93                           ;initializer for _time_counter
    94  003570  0005               	dw	5
    95                           
    96                           	psect	smallconst
    97  001000                     __psmallconst:
    98                           	callstack 0
    99  001000  00                 	db	0
   100  001001                     _seg_list:
   101                           	callstack 0
   102  001001  3F                 	db	63
   103  001002  06                 	db	6
   104  001003  5B                 	db	91
   105  001004  4F                 	db	79
   106  001005  66                 	db	102
   107  001006  6D                 	db	109
   108  001007  7D                 	db	125
   109  001008  07                 	db	7
   110  001009  7F                 	db	127
   111  00100A  6F                 	db	111
   112  00100B                     __end_of_seg_list:
   113                           	callstack 0
   114  0000                     _TXREG1	set	4013
   115  0000                     _RCREG1	set	4014
   116  0000                     _PIR1bits	set	3998
   117  0000                     _PORTBbits	set	3969
   118  0000                     _TXSTA1bits	set	4012
   119  0000                     _T0CONbits	set	4053
   120  0000                     _PIR1	set	3998
   121  0000                     _SPBRG1	set	4015
   122  0000                     _SPBRGH1	set	3967
   123  0000                     _BAUDCON1bits	set	3966
   124  0000                     _RCSTA1	set	4011
   125  0000                     _TXSTA1	set	4012
   126  0000                     _TMR0L	set	4054
   127  0000                     _TMR0H	set	4055
   128  0000                     _T0CON	set	4053
   129  0000                     _TRISJ	set	3994
   130  0000                     _TRISH	set	3993
   131  0000                     _TRISB	set	3987
   132  0000                     _ADRESL	set	4035
   133  0000                     _ADRESH	set	4036
   134  0000                     _ADCON2	set	4032
   135  0000                     _ADCON1	set	4033
   136  0000                     _ADCON0bits	set	4034
   137  0000                     _LATJ	set	3985
   138  0000                     _LATHbits	set	3984
   139  0000                     _INTCONbits	set	4082
   140  0000                     _PIE1bits	set	3997
   141  00100B                     STR_9:
   142  00100B  53                 	db	83	;'S'
   143  00100C  55                 	db	85	;'U'
   144  00100D  42                 	db	66	;'B'
   145  00100E  00                 	db	0
   146  00100F                     STR_3:
   147  00100F  45                 	db	69	;'E'
   148  001010  4E                 	db	78	;'N'
   149  001011  44                 	db	68	;'D'
   150  001012  00                 	db	0
   151  001013                     STR_5:
   152  001013  50                 	db	80	;'P'
   153  001014  52                 	db	82	;'R'
   154  001015  4B                 	db	75	;'K'
   155  001016  00                 	db	0
   156  001017                     STR_7:
   157  001017  45                 	db	69	;'E'
   158  001018  58                 	db	88	;'X'
   159  001019  54                 	db	84	;'T'
   160  00101A  00                 	db	0
   161  00101B                     STR_1:
   162  00101B  47                 	db	71	;'G'
   163  00101C  4F                 	db	79	;'O'
   164  00101D  00                 	db	0
   165  00101E  00                 	db	0	; dummy byte at the end
   166  0000                     
   167                           ; #config settings
   168                           
   169                           	psect	cinit
   170  003188                     __pcinit:
   171                           	callstack 0
   172  003188                     start_initialization:
   173                           	callstack 0
   174  003188                     __initialization:
   175                           	callstack 0
   176                           
   177                           ; Initialize objects allocated to COMRAM (2 bytes)
   178                           ; load TBLPTR registers with __pidataCOMRAM
   179  003188  0E70               	movlw	low __pidataCOMRAM
   180  00318A  6EF6               	movwf	tblptrl,c
   181  00318C  0E35               	movlw	high __pidataCOMRAM
   182  00318E  6EF7               	movwf	tblptrh,c
   183  003190  0E00               	movlw	low (__pidataCOMRAM shr (0+16))
   184  003192  6EF8               	movwf	tblptru,c
   185  003194  0009               	tblrd		*+	;fetch initializer
   186  003196  CFF5 F04B          	movff	tablat,__pdataCOMRAM
   187  00319A  0009               	tblrd		*+	;fetch initializer
   188  00319C  CFF5 F04C          	movff	tablat,__pdataCOMRAM+1
   189                           
   190                           ; Clear objects allocated to BIGRAM (334 bytes)
   191  0031A0  EE03  F000         	lfsr	0,__pbssBIGRAM
   192  0031A4  EE11 F04E          	lfsr	1,334
   193  0031A8                     clear_0:
   194  0031A8  6AEE               	clrf	postinc0,c
   195  0031AA  50E5               	movf	postdec1,w,c
   196  0031AC  50E1               	movf	fsr1l,w,c
   197  0031AE  E1FC               	bnz	clear_0
   198  0031B0  50E2               	movf	fsr1h,w,c
   199  0031B2  E1FA               	bnz	clear_0
   200                           
   201                           ; Clear objects allocated to BANK2 (256 bytes)
   202  0031B4  EE02  F000         	lfsr	0,__pbssBANK2
   203  0031B8  EE11 F000          	lfsr	1,256
   204  0031BC                     clear_1:
   205  0031BC  6AEE               	clrf	postinc0,c
   206  0031BE  50E5               	movf	postdec1,w,c
   207  0031C0  50E1               	movf	fsr1l,w,c
   208  0031C2  E1FC               	bnz	clear_1
   209  0031C4  50E2               	movf	fsr1h,w,c
   210  0031C6  E1FA               	bnz	clear_1
   211                           
   212                           ; Clear objects allocated to BANK1 (256 bytes)
   213  0031C8  EE01  F000         	lfsr	0,__pbssBANK1
   214  0031CC  EE11 F000          	lfsr	1,256
   215  0031D0                     clear_2:
   216  0031D0  6AEE               	clrf	postinc0,c
   217  0031D2  50E5               	movf	postdec1,w,c
   218  0031D4  50E1               	movf	fsr1l,w,c
   219  0031D6  E1FC               	bnz	clear_2
   220  0031D8  50E2               	movf	fsr1h,w,c
   221  0031DA  E1FA               	bnz	clear_2
   222                           
   223                           ; Clear objects allocated to BANK0 (64 bytes)
   224  0031DC  EE00  F060         	lfsr	0,__pbssBANK0
   225  0031E0  0E40               	movlw	64
   226  0031E2                     clear_3:
   227  0031E2  6AEE               	clrf	postinc0,c
   228  0031E4  06E8               	decf	wreg,f,c
   229  0031E6  E1FD               	bnz	clear_3
   230                           
   231                           ; Clear objects allocated to COMRAM (29 bytes)
   232  0031E8  EE00  F02E         	lfsr	0,__pbssCOMRAM
   233  0031EC  0E1D               	movlw	29
   234  0031EE                     clear_4:
   235  0031EE  6AEE               	clrf	postinc0,c
   236  0031F0  06E8               	decf	wreg,f,c
   237  0031F2  E1FD               	bnz	clear_4
   238  0031F4                     end_of_initialization:
   239                           	callstack 0
   240  0031F4                     __end_of__initialization:
   241                           	callstack 0
   242  0031F4  904D               	bcf	int$flags,0,c	;clear compiler interrupt flag (level 1)
   243  0031F6  924D               	bcf	int$flags,1,c	;clear compiler interrupt flag (level 2)
   244  0031F8  0E00               	movlw	low (__Lsmallconst shr (0+16))
   245  0031FA  6EF8               	movwf	tblptru,c
   246  0031FC  0E10               	movlw	high __Lsmallconst
   247  0031FE  6EF7               	movwf	tblptrh,c
   248  003200  0100               	movlb	0
   249  003202  EFA6  F014         	goto	_main	;jump to C main() function
   250                           
   251                           	psect	bssCOMRAM
   252  00002E                     __pbssCOMRAM:
   253                           	callstack 0
   254  00002E                     _in_packet:
   255                           	callstack 0
   256  00002E                     	ds	2
   257  000030                     _msg_len:
   258                           	callstack 0
   259  000030                     	ds	2
   260  000032                     _display_mode:
   261                           	callstack 0
   262  000032                     	ds	2
   263  000034                     _display_counter:
   264                           	callstack 0
   265  000034                     	ds	2
   266  000036                     _new_message_flag:
   267                           	callstack 0
   268  000036                     	ds	2
   269  000038                     _temp_id:
   270                           	callstack 0
   271  000038                     	ds	2
   272  00003A                     _tick_5:
   273                           	callstack 0
   274  00003A                     	ds	2
   275  00003C                     _current_level:
   276                           	callstack 0
   277  00003C                     	ds	2
   278  00003E                     _message_counter:
   279                           	callstack 0
   280  00003E                     	ds	2
   281  000040                     _level_counter:
   282                           	callstack 0
   283  000040                     	ds	2
   284  000042                     _tail:
   285                           	callstack 0
   286  000042                     	ds	2
   287  000044                     _head:
   288                           	callstack 0
   289  000044                     	ds	2
   290  000046                     _run_flag:
   291                           	callstack 0
   292  000046                     	ds	2
   293  000048                     _curr_rb4:
   294                           	callstack 0
   295  000048                     	ds	1
   296  000049                     _prev_rb4:
   297                           	callstack 0
   298  000049                     	ds	1
   299  00004A                     _chr_buf:
   300                           	callstack 0
   301  00004A                     	ds	1
   302                           
   303                           	psect	dataCOMRAM
   304  00004B                     __pdataCOMRAM:
   305                           	callstack 0
   306  00004B                     _time_counter:
   307                           	callstack 0
   308  00004B                     	ds	2
   309                           
   310                           	psect	bssBANK0
   311  000060                     __pbssBANK0:
   312                           	callstack 0
   313  000060                     _q:
   314                           	callstack 0
   315  000060                     	ds	36
   316  000084                     _switch_flag:
   317                           	callstack 0
   318  000084                     	ds	2
   319  000086                     _send_message_flag:
   320                           	callstack 0
   321  000086                     	ds	2
   322  000088                     _message_flag:
   323                           	callstack 0
   324  000088                     	ds	2
   325  00008A                     _total_score:
   326                           	callstack 0
   327  00008A                     	ds	2
   328  00008C                     _buffer:
   329                           	callstack 0
   330  00008C                     	ds	20
   331                           
   332                           	psect	bssBANK1
   333  000100                     __pbssBANK1:
   334                           	callstack 0
   335  000100                     _inbuf:
   336                           	callstack 0
   337  000100                     	ds	256
   338                           
   339                           	psect	bssBANK2
   340  000200                     __pbssBANK2:
   341                           	callstack 0
   342  000200                     _outbuf:
   343                           	callstack 0
   344  000200                     	ds	256
   345                           
   346                           	psect	bssBIGRAM
   347  000300                     __pbssBIGRAM:
   348                           	callstack 0
   349  000300                     _park:
   350                           	callstack 0
   351  000300                     	ds	334
   352                           
   353                           	psect	cstackBANK0
   354  0000A0                     __pcstackBANK0:
   355                           	callstack 0
   356  0000A0                     eval_message@fee:
   357                           	callstack 0
   358                           
   359                           ; 2 bytes @ 0x0
   360  0000A0                     	ds	2
   361  0000A2                     eval_message@id_691:
   362                           	callstack 0
   363                           
   364                           ; 2 bytes @ 0x2
   365  0000A2                     	ds	2
   366  0000A4                     eval_message@id:
   367                           	callstack 0
   368                           
   369                           ; 2 bytes @ 0x4
   370  0000A4                     	ds	2
   371  0000A6                     eval_message@lvl_no:
   372                           	callstack 0
   373                           
   374                           ; 1 bytes @ 0x6
   375  0000A6                     	ds	1
   376  0000A7                     eval_message@slot_no:
   377                           	callstack 0
   378                           
   379                           ; 2 bytes @ 0x7
   380  0000A7                     	ds	2
   381  0000A9                     eval_message@id_685:
   382                           	callstack 0
   383                           
   384                           ; 2 bytes @ 0x9
   385  0000A9                     	ds	2
   386  0000AB                     eval_message@tmp_lvl:
   387                           	callstack 0
   388                           
   389                           ; 1 bytes @ 0xB
   390  0000AB                     	ds	1
   391  0000AC                     eval_message@tmp_slot:
   392                           	callstack 0
   393                           
   394                           ; 2 bytes @ 0xC
   395  0000AC                     	ds	2
   396  0000AE                     eval_message@tmp_slot_686:
   397                           	callstack 0
   398                           
   399                           ; 2 bytes @ 0xE
   400  0000AE                     	ds	2
   401  0000B0                     eval_message@tmp_lvl_687:
   402                           	callstack 0
   403                           
   404                           ; 1 bytes @ 0x10
   405  0000B0                     	ds	1
   406                           
   407                           	psect	cstackCOMRAM
   408  000001                     __pcstackCOMRAM:
   409                           	callstack 0
   410  000001                     ?i2_buf_isempty:
   411                           	callstack 0
   412  000001                     i2buf_push@buf:
   413                           	callstack 0
   414                           
   415                           ; 1 bytes @ 0x0
   416  000001                     	ds	1
   417  000002                     ??i2_buf_push:
   418                           
   419                           ; 1 bytes @ 0x1
   420  000002                     	ds	1
   421  000003                     
   422                           ; 1 bytes @ 0x2
   423  000003                     	ds	1
   424  000004                     i2buf_push@v:
   425                           	callstack 0
   426                           
   427                           ; 1 bytes @ 0x3
   428  000004                     	ds	1
   429  000005                     i2buf_isempty@typ:
   430                           	callstack 0
   431                           
   432                           ; 1 bytes @ 0x4
   433  000005                     	ds	1
   434  000006                     ??i2_buf_pop:
   435                           
   436                           ; 1 bytes @ 0x5
   437  000006                     	ds	2
   438  000008                     i2buf_pop@v:
   439                           	callstack 0
   440                           
   441                           ; 1 bytes @ 0x7
   442  000008                     	ds	1
   443  000009                     i2buf_pop@buf:
   444                           	callstack 0
   445                           
   446                           ; 1 bytes @ 0x8
   447  000009                     	ds	1
   448  00000A                     ??_HandleInterrupt:
   449                           
   450                           ; 1 bytes @ 0x9
   451  00000A                     	ds	4
   452  00000E                     HandleInterrupt@c:
   453                           	callstack 0
   454                           
   455                           ; 1 bytes @ 0xD
   456  00000E                     	ds	1
   457  00000F                     ??_check_level:
   458  00000F                     ?_dequeue:
   459                           	callstack 0
   460  00000F                     ?_buf_isempty:
   461                           	callstack 0
   462  00000F                     ?_is_same:
   463                           	callstack 0
   464  00000F                     ?___wmul:
   465                           	callstack 0
   466  00000F                     ?___awdiv:
   467                           	callstack 0
   468  00000F                     ?___lwdiv:
   469                           	callstack 0
   470  00000F                     enqueue@car_id:
   471                           	callstack 0
   472  00000F                     is_same@a:
   473                           	callstack 0
   474  00000F                     ___wmul@multiplier:
   475                           	callstack 0
   476  00000F                     ___awdiv@dividend:
   477                           	callstack 0
   478  00000F                     ___lwdiv@dividend:
   479                           	callstack 0
   480                           
   481                           ; 2 bytes @ 0xE
   482  00000F                     	ds	2
   483  000011                     ??_dequeue:
   484  000011                     is_same@b:
   485                           	callstack 0
   486  000011                     check_level@adc_val:
   487                           	callstack 0
   488  000011                     ___wmul@multiplicand:
   489                           	callstack 0
   490  000011                     ___awdiv@divisor:
   491                           	callstack 0
   492  000011                     ___lwdiv@divisor:
   493                           	callstack 0
   494                           
   495                           ; 2 bytes @ 0x10
   496  000011                     	ds	1
   497  000012                     dequeue@car_id:
   498                           	callstack 0
   499                           
   500                           ; 2 bytes @ 0x11
   501  000012                     	ds	1
   502  000013                     buf_isempty@typ:
   503                           	callstack 0
   504  000013                     ___awdiv@counter:
   505                           	callstack 0
   506  000013                     ___lwdiv@counter:
   507                           	callstack 0
   508  000013                     is_same@n:
   509                           	callstack 0
   510  000013                     ___wmul@product:
   511                           	callstack 0
   512                           
   513                           ; 2 bytes @ 0x12
   514  000013                     	ds	1
   515  000014                     ??_buf_pop:
   516  000014                     ___awdiv@sign:
   517                           	callstack 0
   518  000014                     dequeue@i:
   519                           	callstack 0
   520  000014                     ___lwdiv@quotient:
   521                           	callstack 0
   522                           
   523                           ; 2 bytes @ 0x13
   524  000014                     	ds	1
   525  000015                     ??_is_same:
   526  000015                     ?_find_park_available_slot:
   527                           	callstack 0
   528  000015                     ?_find_subscribed:
   529                           	callstack 0
   530  000015                     find_park_available_slot@level:
   531                           	callstack 0
   532  000015                     find_subscribed@level:
   533                           	callstack 0
   534  000015                     find_parked@id:
   535                           	callstack 0
   536  000015                     init_others@k:
   537                           	callstack 0
   538  000015                     ___awdiv@quotient:
   539                           	callstack 0
   540                           
   541                           ; 2 bytes @ 0x14
   542  000015                     	ds	1
   543  000016                     ?___lwmod:
   544                           	callstack 0
   545  000016                     buf_pop@v:
   546                           	callstack 0
   547  000016                     ___lwmod@dividend:
   548                           	callstack 0
   549                           
   550                           ; 2 bytes @ 0x15
   551  000016                     	ds	1
   552  000017                     ?___awmod:
   553                           	callstack 0
   554  000017                     buf_pop@buf:
   555                           	callstack 0
   556  000017                     find_park_available_slot@slot:
   557                           	callstack 0
   558  000017                     find_subscribed@slot:
   559                           	callstack 0
   560  000017                     find_parked@level:
   561                           	callstack 0
   562  000017                     ___awmod@dividend:
   563                           	callstack 0
   564                           
   565                           ; 2 bytes @ 0x16
   566  000017                     	ds	1
   567  000018                     is_same@k:
   568                           	callstack 0
   569  000018                     ___lwmod@divisor:
   570                           	callstack 0
   571                           
   572                           ; 2 bytes @ 0x17
   573  000018                     	ds	1
   574  000019                     find_park_available_slot@temp_id:
   575                           	callstack 0
   576  000019                     find_subscribed@id:
   577                           	callstack 0
   578  000019                     find_parked@slot:
   579                           	callstack 0
   580  000019                     ___awmod@divisor:
   581                           	callstack 0
   582                           
   583                           ; 2 bytes @ 0x18
   584  000019                     	ds	1
   585  00001A                     ___lwmod@counter:
   586                           	callstack 0
   587                           
   588                           ; 1 bytes @ 0x19
   589  00001A                     	ds	1
   590  00001B                     ??_find_park_available_slot:
   591  00001B                     ??_find_subscribed:
   592  00001B                     ??_find_parked:
   593  00001B                     ___awmod@counter:
   594                           	callstack 0
   595                           
   596                           ; 1 bytes @ 0x1A
   597  00001B                     	ds	1
   598  00001C                     ___awmod@sign:
   599                           	callstack 0
   600                           
   601                           ; 1 bytes @ 0x1B
   602  00001C                     	ds	1
   603  00001D                     update_display@bit3:
   604                           	callstack 0
   605  00001D                     buf_push@buf:
   606                           	callstack 0
   607                           
   608                           ; 1 bytes @ 0x1C
   609  00001D                     	ds	1
   610  00001E                     ??_buf_push:
   611  00001E                     update_display@bit2:
   612                           	callstack 0
   613                           
   614                           ; 1 bytes @ 0x1D
   615  00001E                     	ds	1
   616  00001F                     update_display@bit1:
   617                           	callstack 0
   618                           
   619                           ; 1 bytes @ 0x1E
   620  00001F                     	ds	1
   621  000020                     update_display@bit0:
   622                           	callstack 0
   623  000020                     buf_push@v:
   624                           	callstack 0
   625                           
   626                           ; 1 bytes @ 0x1F
   627  000020                     	ds	1
   628  000021                     find_park_available_slot@j:
   629                           	callstack 0
   630  000021                     find_subscribed@k:
   631                           	callstack 0
   632  000021                     find_parked@k:
   633                           	callstack 0
   634  000021                     update_display@empty:
   635                           	callstack 0
   636                           
   637                           ; 2 bytes @ 0x20
   638  000021                     	ds	2
   639  000023                     find_park_available_slot@k:
   640                           	callstack 0
   641  000023                     find_subscribed@j:
   642                           	callstack 0
   643  000023                     find_parked@j:
   644                           	callstack 0
   645  000023                     update_display@val:
   646                           	callstack 0
   647                           
   648                           ; 2 bytes @ 0x22
   649  000023                     	ds	2
   650  000025                     ??_eval_message:
   651                           
   652                           ; 1 bytes @ 0x24
   653  000025                     	ds	8
   654  00002D                     receive_message@c:
   655                           	callstack 0
   656                           
   657                           ; 1 bytes @ 0x2C
   658  00002D                     	ds	1
   659  00002E                     
   660                           ; 1 bytes @ 0x2D
   661 ;;
   662 ;;Main: autosize = 0, tempsize = 0, incstack = 0, save=0
   663 ;;
   664 ;; *************** function _main *****************
   665 ;; Defined at:
   666 ;;		line 636 in file "main.c"
   667 ;; Parameters:    Size  Location     Type
   668 ;;		None
   669 ;; Auto vars:     Size  Location     Type
   670 ;;		None
   671 ;; Return value:  Size  Location     Type
   672 ;;                  1    wreg      void 
   673 ;; Registers used:
   674 ;;		wreg, fsr1l, fsr1h, fsr2l, fsr2h, status,2, status,0, tblptrl, tblptrh, tblptru, prodl, prodh, cstack
   675 ;; Tracked objects:
   676 ;;		On entry : 0/0
   677 ;;		On exit  : 0/0
   678 ;;		Unchanged: 0/0
   679 ;; Data sizes:     COMRAM   BANK0   BANK1   BANK2   BANK3   BANK4   BANK5   BANK6   BANK7   BANK8   BANK9  BANK10  BANK1
      +1  BANK12  BANK13  BANK14  BANK15
   680 ;;      Params:         0       0       0       0       0       0       0       0       0       0       0       0       
      +0       0       0       0       0
   681 ;;      Locals:         0       0       0       0       0       0       0       0       0       0       0       0       
      +0       0       0       0       0
   682 ;;      Temps:          0       0       0       0       0       0       0       0       0       0       0       0       
      +0       0       0       0       0
   683 ;;      Totals:         0       0       0       0       0       0       0       0       0       0       0       0       
      +0       0       0       0       0
   684 ;;Total ram usage:        0 bytes
   685 ;; Hardware stack levels required when called:    7
   686 ;; This function calls:
   687 ;;		_check_level
   688 ;;		_init_adc
   689 ;;		_init_others
   690 ;;		_init_ports
   691 ;;		_receive_message
   692 ;;		_send_message
   693 ;;		_update_display
   694 ;; This function is called by:
   695 ;;		Startup code after reset
   696 ;; This function uses a non-reentrant model
   697 ;;
   698                           
   699                           	psect	text0
   700  00294C                     __ptext0:
   701                           	callstack 0
   702  00294C                     _main:
   703                           	callstack 24
   704  00294C                     
   705                           ;main.c: 637:     init_ports();
   706  00294C  ECA5  F01A         	call	_init_ports	;wreg free
   707                           
   708                           ;main.c: 638:     init_adc();
   709  002950  EC97  F01A         	call	_init_adc	;wreg free
   710  002954                     
   711                           ;main.c: 639:     init_others();
   712  002954  EC2A  F016         	call	_init_others	;wreg free
   713  002958                     l3442:
   714                           
   715                           ;main.c: 641:         if(message_flag){
   716  002958  0100               	movlb	0	; () banked
   717  00295A  5188               	movf	_message_flag& (0+255),w,b
   718  00295C  1189               	iorwf	(_message_flag+1)& (0+255),w,b
   719  00295E  B4D8               	btfsc	status,2,c
   720  002960  EFB4  F014         	goto	u3371
   721  002964  EFB6  F014         	goto	u3370
   722  002968                     u3371:
   723  002968  EFBC  F014         	goto	l3448
   724  00296C                     u3370:
   725  00296C                     
   726                           ; BSR set to: 0
   727                           ;main.c: 642:             message_flag = 0;
   728  00296C  0E00               	movlw	0
   729  00296E  6F89               	movwf	(_message_flag+1)& (0+255),b
   730  002970  0E00               	movlw	0
   731  002972  6F88               	movwf	_message_flag& (0+255),b
   732  002974                     
   733                           ; BSR set to: 0
   734                           ;main.c: 643:             receive_message();
   735  002974  ECC0  F015         	call	_receive_message	;wreg free
   736  002978                     l3448:
   737                           
   738                           ;main.c: 645:         if(send_message_flag){
   739  002978  0100               	movlb	0	; () banked
   740  00297A  5186               	movf	_send_message_flag& (0+255),w,b
   741  00297C  1187               	iorwf	(_send_message_flag+1)& (0+255),w,b
   742  00297E  B4D8               	btfsc	status,2,c
   743  002980  EFC4  F014         	goto	u3381
   744  002984  EFC6  F014         	goto	u3380
   745  002988                     u3381:
   746  002988  EFCC  F014         	goto	l3454
   747  00298C                     u3380:
   748  00298C                     
   749                           ; BSR set to: 0
   750                           ;main.c: 646:             send_message_flag = 0;
   751  00298C  0E00               	movlw	0
   752  00298E  6F87               	movwf	(_send_message_flag+1)& (0+255),b
   753  002990  0E00               	movlw	0
   754  002992  6F86               	movwf	_send_message_flag& (0+255),b
   755  002994                     
   756                           ; BSR set to: 0
   757                           ;main.c: 647:             send_message();
   758  002994  EC4A  F017         	call	_send_message	;wreg free
   759  002998                     l3454:
   760                           
   761                           ;main.c: 649:         if(tick_5){
   762  002998  503A               	movf	_tick_5^0,w,c
   763  00299A  103B               	iorwf	(_tick_5+1)^0,w,c
   764  00299C  B4D8               	btfsc	status,2,c
   765  00299E  EFD3  F014         	goto	u3391
   766  0029A2  EFD5  F014         	goto	u3390
   767  0029A6                     u3391:
   768  0029A6  EFAC  F014         	goto	l3442
   769  0029AA                     u3390:
   770  0029AA                     
   771                           ;main.c: 650:             tick_5 = 0;
   772  0029AA  0E00               	movlw	0
   773  0029AC  6E3B               	movwf	(_tick_5+1)^0,c
   774  0029AE  0E00               	movlw	0
   775  0029B0  6E3A               	movwf	_tick_5^0,c
   776  0029B2                     
   777                           ;main.c: 651:             level_counter++;
   778  0029B2  4A40               	infsnz	_level_counter^0,f,c
   779  0029B4  2A41               	incf	(_level_counter+1)^0,f,c
   780  0029B6                     
   781                           ;main.c: 652:             time_counter += 5;
   782  0029B6  0E05               	movlw	5
   783  0029B8  264B               	addwf	_time_counter^0,f,c
   784  0029BA  0E00               	movlw	0
   785  0029BC  224C               	addwfc	(_time_counter+1)^0,f,c
   786  0029BE                     
   787                           ;main.c: 653:             message_counter++;
   788  0029BE  4A3E               	infsnz	_message_counter^0,f,c
   789  0029C0  2A3F               	incf	(_message_counter+1)^0,f,c
   790  0029C2                     
   791                           ;main.c: 654:             if (level_counter == 100) {
   792  0029C2  0E64               	movlw	100
   793  0029C4  1840               	xorwf	_level_counter^0,w,c
   794  0029C6  1041               	iorwf	(_level_counter+1)^0,w,c
   795  0029C8  A4D8               	btfss	status,2,c
   796  0029CA  EFE9  F014         	goto	u3401
   797  0029CE  EFEB  F014         	goto	u3400
   798  0029D2                     u3401:
   799  0029D2  EFF1  F014         	goto	l3470
   800  0029D6                     u3400:
   801  0029D6                     
   802                           ;main.c: 655:                 level_counter = 0;
   803  0029D6  0E00               	movlw	0
   804  0029D8  6E41               	movwf	(_level_counter+1)^0,c
   805  0029DA  0E00               	movlw	0
   806  0029DC  6E40               	movwf	_level_counter^0,c
   807  0029DE                     
   808                           ;main.c: 656:                 check_level();
   809  0029DE  EC82  F018         	call	_check_level	;wreg free
   810  0029E2                     l3470:
   811                           
   812                           ;main.c: 658:             if (message_counter == 20) {
   813  0029E2  0E14               	movlw	20
   814  0029E4  183E               	xorwf	_message_counter^0,w,c
   815  0029E6  103F               	iorwf	(_message_counter+1)^0,w,c
   816  0029E8  A4D8               	btfss	status,2,c
   817  0029EA  EFF9  F014         	goto	u3411
   818  0029EE  EFFB  F014         	goto	u3410
   819  0029F2                     u3411:
   820  0029F2  EF04  F015         	goto	l3474
   821  0029F6                     u3410:
   822  0029F6                     
   823                           ;main.c: 659:                 message_counter = 0;
   824  0029F6  0E00               	movlw	0
   825  0029F8  6E3F               	movwf	(_message_counter+1)^0,c
   826  0029FA  0E00               	movlw	0
   827  0029FC  6E3E               	movwf	_message_counter^0,c
   828                           
   829                           ;main.c: 660:                 send_message_flag = 1;
   830  0029FE  0E00               	movlw	0
   831  002A00  0100               	movlb	0	; () banked
   832  002A02  6F87               	movwf	(_send_message_flag+1)& (0+255),b
   833  002A04  0E01               	movlw	1
   834  002A06  6F86               	movwf	_send_message_flag& (0+255),b
   835  002A08                     l3474:
   836                           
   837                           ;main.c: 662:             if(switch_flag){
   838  002A08  0100               	movlb	0	; () banked
   839  002A0A  5184               	movf	_switch_flag& (0+255),w,b
   840  002A0C  1185               	iorwf	(_switch_flag+1)& (0+255),w,b
   841  002A0E  B4D8               	btfsc	status,2,c
   842  002A10  EF0C  F015         	goto	u3421
   843  002A14  EF0E  F015         	goto	u3420
   844  002A18                     u3421:
   845  002A18  EF31  F015         	goto	l3486
   846  002A1C                     u3420:
   847  002A1C                     
   848                           ; BSR set to: 0
   849                           ;main.c: 663:                 switch_flag = 0;
   850  002A1C  0E00               	movlw	0
   851  002A1E  6F85               	movwf	(_switch_flag+1)& (0+255),b
   852  002A20  0E00               	movlw	0
   853  002A22  6F84               	movwf	_switch_flag& (0+255),b
   854  002A24                     
   855                           ; BSR set to: 0
   856                           ;main.c: 664:                 if(prev_rb4 == 1 && curr_rb4 == 0){display_mode = !display
      +                          _mode;}
   857  002A24  0449               	decf	_prev_rb4^0,w,c	;volatile
   858  002A26  A4D8               	btfss	status,2,c
   859  002A28  EF18  F015         	goto	u3431
   860  002A2C  EF1A  F015         	goto	u3430
   861  002A30                     u3431:
   862  002A30  EF2F  F015         	goto	l3484
   863  002A34                     u3430:
   864  002A34                     
   865                           ; BSR set to: 0
   866  002A34  5048               	movf	_curr_rb4^0,w,c
   867  002A36  A4D8               	btfss	status,2,c
   868  002A38  EF20  F015         	goto	u3441
   869  002A3C  EF22  F015         	goto	u3440
   870  002A40                     u3441:
   871  002A40  EF2F  F015         	goto	l3484
   872  002A44                     u3440:
   873  002A44                     
   874                           ; BSR set to: 0
   875  002A44  5032               	movf	_display_mode^0,w,c
   876  002A46  1033               	iorwf	(_display_mode+1)^0,w,c
   877  002A48  B4D8               	btfsc	status,2,c
   878  002A4A  EF29  F015         	goto	u3451
   879  002A4E  EF2C  F015         	goto	u3450
   880  002A52                     u3451:
   881  002A52  0E01               	movlw	1
   882  002A54  EF2D  F015         	goto	u3460
   883  002A58                     u3450:
   884  002A58  0E00               	movlw	0
   885  002A5A                     u3460:
   886  002A5A  6E32               	movwf	_display_mode^0,c
   887  002A5C  6A33               	clrf	(_display_mode+1)^0,c
   888  002A5E                     l3484:
   889                           
   890                           ; BSR set to: 0
   891                           ;main.c: 666:                 prev_rb4 = curr_rb4;
   892  002A5E  C048  F049         	movff	_curr_rb4,_prev_rb4	;volatile
   893  002A62                     l3486:
   894                           
   895                           ; BSR set to: 0
   896                           ;main.c: 668:             update_display();
   897  002A62  EC29  F012         	call	_update_display	;wreg free
   898  002A66  EFAC  F014         	goto	l3442
   899  002A6A  EF07  F000         	goto	start
   900  002A6E                     __end_of_main:
   901                           	callstack 0
   902                           
   903 ;; *************** function _update_display *****************
   904 ;; Defined at:
   905 ;;		line 178 in file "main.c"
   906 ;; Parameters:    Size  Location     Type
   907 ;;		None
   908 ;; Auto vars:     Size  Location     Type
   909 ;;  empty           2   32[COMRAM] int 
   910 ;;  val             2   34[COMRAM] unsigned short 
   911 ;;  bit0            1   31[COMRAM] unsigned char 
   912 ;;  bit1            1   30[COMRAM] unsigned char 
   913 ;;  bit2            1   29[COMRAM] unsigned char 
   914 ;;  bit3            1   28[COMRAM] unsigned char 
   915 ;; Return value:  Size  Location     Type
   916 ;;                  1    wreg      void 
   917 ;; Registers used:
   918 ;;		wreg, fsr2l, fsr2h, status,2, status,0, tblptrl, tblptrh, tblptru, prodl, prodh, cstack
   919 ;; Tracked objects:
   920 ;;		On entry : 0/0
   921 ;;		On exit  : 0/0
   922 ;;		Unchanged: 0/0
   923 ;; Data sizes:     COMRAM   BANK0   BANK1   BANK2   BANK3   BANK4   BANK5   BANK6   BANK7   BANK8   BANK9  BANK10  BANK1
      +1  BANK12  BANK13  BANK14  BANK15
   924 ;;      Params:         0       0       0       0       0       0       0       0       0       0       0       0       
      +0       0       0       0       0
   925 ;;      Locals:         8       0       0       0       0       0       0       0       0       0       0       0       
      +0       0       0       0       0
   926 ;;      Temps:          0       0       0       0       0       0       0       0       0       0       0       0       
      +0       0       0       0       0
   927 ;;      Totals:         8       0       0       0       0       0       0       0       0       0       0       0       
      +0       0       0       0       0
   928 ;;Total ram usage:        8 bytes
   929 ;; Hardware stack levels used:    1
   930 ;; Hardware stack levels required when called:    4
   931 ;; This function calls:
   932 ;;		___awdiv
   933 ;;		___awmod
   934 ;;		___lwdiv
   935 ;;		___lwmod
   936 ;;		___wmul
   937 ;; This function is called by:
   938 ;;		_main
   939 ;; This function uses a non-reentrant model
   940 ;;
   941                           
   942                           	psect	text1
   943  002452                     __ptext1:
   944                           	callstack 0
   945  002452                     _update_display:
   946                           	callstack 26
   947  002452  0E00               	movlw	0
   948  002454  6E1E               	movwf	update_display@bit2^0,c
   949  002456  0E00               	movlw	0
   950  002458  6E1F               	movwf	update_display@bit1^0,c
   951  00245A  0E00               	movlw	0
   952  00245C  6E20               	movwf	update_display@bit0^0,c
   953  00245E                     
   954                           ;main.c: 181:     if (display_mode == 0) {
   955  00245E  5032               	movf	_display_mode^0,w,c
   956  002460  1033               	iorwf	(_display_mode+1)^0,w,c
   957  002462  A4D8               	btfss	status,2,c
   958  002464  EF36  F012         	goto	u3241
   959  002468  EF38  F012         	goto	u3240
   960  00246C                     u3241:
   961  00246C  EFA8  F012         	goto	l3344
   962  002470                     u3240:
   963  002470                     
   964                           ;main.c: 182:         uint16_t val = total_score;
   965  002470  C08A  F023         	movff	_total_score,update_display@val
   966  002474  C08B  F024         	movff	_total_score+1,update_display@val+1
   967  002478                     
   968                           ;main.c: 183:         bit3 = seg_list[(val / 1000) % 10];
   969  002478  0E03               	movlw	3
   970  00247A  6E12               	movwf	(___lwdiv@divisor+1)^0,c
   971  00247C  0EE8               	movlw	232
   972  00247E  6E11               	movwf	___lwdiv@divisor^0,c
   973  002480  C023  F00F         	movff	update_display@val,___lwdiv@dividend
   974  002484  C024  F010         	movff	update_display@val+1,___lwdiv@dividend+1
   975  002488  ECB7  F019         	call	___lwdiv	;wreg free
   976  00248C  C00F  F016         	movff	?___lwdiv,___lwmod@dividend
   977  002490  C010  F017         	movff	?___lwdiv+1,___lwmod@dividend+1
   978  002494  0E00               	movlw	0
   979  002496  6E19               	movwf	(___lwmod@divisor+1)^0,c
   980  002498  0E0A               	movlw	10
   981  00249A  6E18               	movwf	___lwmod@divisor^0,c
   982  00249C  ECF1  F019         	call	___lwmod	;wreg free
   983  0024A0  0E01               	movlw	low _seg_list
   984  0024A2  2416               	addwf	?___lwmod^0,w,c
   985  0024A4  6EF6               	movwf	tblptrl,c
   986  0024A6  0E10               	movlw	high _seg_list
   987  0024A8  2017               	addwfc	(?___lwmod+1)^0,w,c
   988  0024AA  6EF7               	movwf	tblptrh,c
   989  0024AC                     	if	0	;There are less than 3 active tblptr bytes
   990  0024AC                     	endif
   991  0024AC  0008               	tblrd		*
   992  0024AE  CFF5 F01D          	movff	tablat,update_display@bit3
   993                           
   994                           ;main.c: 184:         bit2 = seg_list[(val / 100) % 10];
   995  0024B2  0E00               	movlw	0
   996  0024B4  6E12               	movwf	(___lwdiv@divisor+1)^0,c
   997  0024B6  0E64               	movlw	100
   998  0024B8  6E11               	movwf	___lwdiv@divisor^0,c
   999  0024BA  C023  F00F         	movff	update_display@val,___lwdiv@dividend
  1000  0024BE  C024  F010         	movff	update_display@val+1,___lwdiv@dividend+1
  1001  0024C2  ECB7  F019         	call	___lwdiv	;wreg free
  1002  0024C6  C00F  F016         	movff	?___lwdiv,___lwmod@dividend
  1003  0024CA  C010  F017         	movff	?___lwdiv+1,___lwmod@dividend+1
  1004  0024CE  0E00               	movlw	0
  1005  0024D0  6E19               	movwf	(___lwmod@divisor+1)^0,c
  1006  0024D2  0E0A               	movlw	10
  1007  0024D4  6E18               	movwf	___lwmod@divisor^0,c
  1008  0024D6  ECF1  F019         	call	___lwmod	;wreg free
  1009  0024DA  0E01               	movlw	low _seg_list
  1010  0024DC  2416               	addwf	?___lwmod^0,w,c
  1011  0024DE  6EF6               	movwf	tblptrl,c
  1012  0024E0  0E10               	movlw	high _seg_list
  1013  0024E2  2017               	addwfc	(?___lwmod+1)^0,w,c
  1014  0024E4  6EF7               	movwf	tblptrh,c
  1015  0024E6                     	if	0	;There are less than 3 active tblptr bytes
  1016  0024E6                     	endif
  1017  0024E6  0008               	tblrd		*
  1018  0024E8  CFF5 F01E          	movff	tablat,update_display@bit2
  1019                           
  1020                           ;main.c: 185:         bit1 = seg_list[(val / 10) % 10];
  1021  0024EC  0E00               	movlw	0
  1022  0024EE  6E12               	movwf	(___lwdiv@divisor+1)^0,c
  1023  0024F0  0E0A               	movlw	10
  1024  0024F2  6E11               	movwf	___lwdiv@divisor^0,c
  1025  0024F4  C023  F00F         	movff	update_display@val,___lwdiv@dividend
  1026  0024F8  C024  F010         	movff	update_display@val+1,___lwdiv@dividend+1
  1027  0024FC  ECB7  F019         	call	___lwdiv	;wreg free
  1028  002500  C00F  F016         	movff	?___lwdiv,___lwmod@dividend
  1029  002504  C010  F017         	movff	?___lwdiv+1,___lwmod@dividend+1
  1030  002508  0E00               	movlw	0
  1031  00250A  6E19               	movwf	(___lwmod@divisor+1)^0,c
  1032  00250C  0E0A               	movlw	10
  1033  00250E  6E18               	movwf	___lwmod@divisor^0,c
  1034  002510  ECF1  F019         	call	___lwmod	;wreg free
  1035  002514  0E01               	movlw	low _seg_list
  1036  002516  2416               	addwf	?___lwmod^0,w,c
  1037  002518  6EF6               	movwf	tblptrl,c
  1038  00251A  0E10               	movlw	high _seg_list
  1039  00251C  2017               	addwfc	(?___lwmod+1)^0,w,c
  1040  00251E  6EF7               	movwf	tblptrh,c
  1041  002520                     	if	0	;There are less than 3 active tblptr bytes
  1042  002520                     	endif
  1043  002520  0008               	tblrd		*
  1044  002522  CFF5 F01F          	movff	tablat,update_display@bit1
  1045                           
  1046                           ;main.c: 186:         bit0 = seg_list[val % 10];
  1047  002526  C023  F016         	movff	update_display@val,___lwmod@dividend
  1048  00252A  C024  F017         	movff	update_display@val+1,___lwmod@dividend+1
  1049  00252E  0E00               	movlw	0
  1050  002530  6E19               	movwf	(___lwmod@divisor+1)^0,c
  1051  002532  0E0A               	movlw	10
  1052  002534  6E18               	movwf	___lwmod@divisor^0,c
  1053  002536  ECF1  F019         	call	___lwmod	;wreg free
  1054  00253A  0E01               	movlw	low _seg_list
  1055  00253C  2416               	addwf	?___lwmod^0,w,c
  1056  00253E  6EF6               	movwf	tblptrl,c
  1057  002540  0E10               	movlw	high _seg_list
  1058  002542  2017               	addwfc	(?___lwmod+1)^0,w,c
  1059  002544  6EF7               	movwf	tblptrh,c
  1060  002546                     	if	0	;There are less than 3 active tblptr bytes
  1061  002546                     	endif
  1062  002546  0008               	tblrd		*
  1063  002548  CFF5 F020          	movff	tablat,update_display@bit0
  1064                           
  1065                           ;main.c: 187:     } else {
  1066  00254C  EFF0  F012         	goto	l3354
  1067  002550                     l3344:
  1068                           
  1069                           ;main.c: 188:         int empty = park.floors[current_level].available_f;
  1070  002550  C03C  F00F         	movff	_current_level,___wmul@multiplier
  1071  002554  C03D  F010         	movff	_current_level+1,___wmul@multiplier+1
  1072  002558  0E00               	movlw	0
  1073  00255A  6E12               	movwf	(___wmul@multiplicand+1)^0,c
  1074  00255C  0E53               	movlw	83
  1075  00255E  6E11               	movwf	___wmul@multiplicand^0,c
  1076  002560  EC84  F01A         	call	___wmul	;wreg free
  1077  002564  0E53               	movlw	low (_park+83)
  1078  002566  240F               	addwf	?___wmul^0,w,c
  1079  002568  6ED9               	movwf	fsr2l,c
  1080  00256A  0E03               	movlw	high (_park+83)
  1081  00256C  2010               	addwfc	(?___wmul+1)^0,w,c
  1082  00256E  6EDA               	movwf	fsr2h,c
  1083  002570  CFDE F021          	movff	postinc2,update_display@empty
  1084  002574  CFDD F022          	movff	postdec2,update_display@empty+1
  1085  002578                     
  1086                           ;main.c: 189:         bit3 = 0x00;
  1087  002578  0E00               	movlw	0
  1088  00257A  6E1D               	movwf	update_display@bit3^0,c
  1089  00257C                     
  1090                           ;main.c: 190:         bit2 = 0x00;
  1091  00257C  0E00               	movlw	0
  1092  00257E  6E1E               	movwf	update_display@bit2^0,c
  1093  002580                     
  1094                           ;main.c: 191:         bit1 = seg_list[(empty / 10) % 10];
  1095  002580  0E00               	movlw	0
  1096  002582  6E12               	movwf	(___awdiv@divisor+1)^0,c
  1097  002584  0E0A               	movlw	10
  1098  002586  6E11               	movwf	___awdiv@divisor^0,c
  1099  002588  C021  F00F         	movff	update_display@empty,___awdiv@dividend
  1100  00258C  C022  F010         	movff	update_display@empty+1,___awdiv@dividend+1
  1101  002590  EC90  F016         	call	___awdiv	;wreg free
  1102  002594  C00F  F017         	movff	?___awdiv,___awmod@dividend
  1103  002598  C010  F018         	movff	?___awdiv+1,___awmod@dividend+1
  1104  00259C  0E00               	movlw	0
  1105  00259E  6E1A               	movwf	(___awmod@divisor+1)^0,c
  1106  0025A0  0E0A               	movlw	10
  1107  0025A2  6E19               	movwf	___awmod@divisor^0,c
  1108  0025A4  ECF2  F016         	call	___awmod	;wreg free
  1109  0025A8  0E01               	movlw	low _seg_list
  1110  0025AA  2417               	addwf	?___awmod^0,w,c
  1111  0025AC  6EF6               	movwf	tblptrl,c
  1112  0025AE  0E10               	movlw	high _seg_list
  1113  0025B0  2018               	addwfc	(?___awmod+1)^0,w,c
  1114  0025B2  6EF7               	movwf	tblptrh,c
  1115  0025B4                     	if	0	;There are less than 3 active tblptr bytes
  1116  0025B4                     	endif
  1117  0025B4  0008               	tblrd		*
  1118  0025B6  CFF5 F01F          	movff	tablat,update_display@bit1
  1119  0025BA                     
  1120                           ;main.c: 192:         bit0 = seg_list[empty % 10];
  1121  0025BA  C021  F017         	movff	update_display@empty,___awmod@dividend
  1122  0025BE  C022  F018         	movff	update_display@empty+1,___awmod@dividend+1
  1123  0025C2  0E00               	movlw	0
  1124  0025C4  6E1A               	movwf	(___awmod@divisor+1)^0,c
  1125  0025C6  0E0A               	movlw	10
  1126  0025C8  6E19               	movwf	___awmod@divisor^0,c
  1127  0025CA  ECF2  F016         	call	___awmod	;wreg free
  1128  0025CE  0E01               	movlw	low _seg_list
  1129  0025D0  2417               	addwf	?___awmod^0,w,c
  1130  0025D2  6EF6               	movwf	tblptrl,c
  1131  0025D4  0E10               	movlw	high _seg_list
  1132  0025D6  2018               	addwfc	(?___awmod+1)^0,w,c
  1133  0025D8  6EF7               	movwf	tblptrh,c
  1134  0025DA                     	if	0	;There are less than 3 active tblptr bytes
  1135  0025DA                     	endif
  1136  0025DA  0008               	tblrd		*
  1137  0025DC  CFF5 F020          	movff	tablat,update_display@bit0
  1138  0025E0                     l3354:
  1139                           
  1140                           ;main.c: 195:     display_counter++;
  1141  0025E0  4A34               	infsnz	_display_counter^0,f,c
  1142  0025E2  2A35               	incf	(_display_counter+1)^0,f,c
  1143  0025E4                     
  1144                           ;main.c: 196:     if (display_counter == 1) {
  1145  0025E4  0434               	decf	_display_counter^0,w,c
  1146  0025E6  1035               	iorwf	(_display_counter+1)^0,w,c
  1147  0025E8  A4D8               	btfss	status,2,c
  1148  0025EA  EFF9  F012         	goto	u3251
  1149  0025EE  EFFB  F012         	goto	u3250
  1150  0025F2                     u3251:
  1151  0025F2  EF03  F013         	goto	l3360
  1152  0025F6                     u3250:
  1153  0025F6                     
  1154                           ;main.c: 197:         LATHbits.LATH3 = 0;
  1155  0025F6  9690               	bcf	144,3,c	;volatile
  1156                           
  1157                           ;main.c: 198:         LATHbits.LATH2 = 0;
  1158  0025F8  9490               	bcf	144,2,c	;volatile
  1159                           
  1160                           ;main.c: 199:         LATHbits.LATH1 = 0;
  1161  0025FA  9290               	bcf	144,1,c	;volatile
  1162                           
  1163                           ;main.c: 200:         LATHbits.LATH0 = 1;
  1164  0025FC  8090               	bsf	144,0,c	;volatile
  1165                           
  1166                           ;main.c: 201:         LATJ = bit3;
  1167  0025FE  C01D  FF91         	movff	update_display@bit3,3985	;volatile
  1168                           
  1169                           ;main.c: 202:     } else if (display_counter == 2) {
  1170  002602  EF3D  F013         	goto	l158
  1171  002606                     l3360:
  1172  002606  0E02               	movlw	2
  1173  002608  1834               	xorwf	_display_counter^0,w,c
  1174  00260A  1035               	iorwf	(_display_counter+1)^0,w,c
  1175  00260C  A4D8               	btfss	status,2,c
  1176  00260E  EF0B  F013         	goto	u3261
  1177  002612  EF0D  F013         	goto	u3260
  1178  002616                     u3261:
  1179  002616  EF15  F013         	goto	l3364
  1180  00261A                     u3260:
  1181  00261A                     
  1182                           ;main.c: 203:         LATHbits.LATH3 = 0;
  1183  00261A  9690               	bcf	144,3,c	;volatile
  1184                           
  1185                           ;main.c: 204:         LATHbits.LATH2 = 0;
  1186  00261C  9490               	bcf	144,2,c	;volatile
  1187                           
  1188                           ;main.c: 205:         LATHbits.LATH1 = 1;
  1189  00261E  8290               	bsf	144,1,c	;volatile
  1190                           
  1191                           ;main.c: 206:         LATHbits.LATH0 = 0;
  1192  002620  9090               	bcf	144,0,c	;volatile
  1193                           
  1194                           ;main.c: 207:         LATJ = bit2;
  1195  002622  C01E  FF91         	movff	update_display@bit2,3985	;volatile
  1196                           
  1197                           ;main.c: 208:     } else if (display_counter == 3) {
  1198  002626  EF3D  F013         	goto	l158
  1199  00262A                     l3364:
  1200  00262A  0E03               	movlw	3
  1201  00262C  1834               	xorwf	_display_counter^0,w,c
  1202  00262E  1035               	iorwf	(_display_counter+1)^0,w,c
  1203  002630  A4D8               	btfss	status,2,c
  1204  002632  EF1D  F013         	goto	u3271
  1205  002636  EF1F  F013         	goto	u3270
  1206  00263A                     u3271:
  1207  00263A  EF27  F013         	goto	l3368
  1208  00263E                     u3270:
  1209  00263E                     
  1210                           ;main.c: 209:         LATHbits.LATH3 = 0;
  1211  00263E  9690               	bcf	144,3,c	;volatile
  1212                           
  1213                           ;main.c: 210:         LATHbits.LATH2 = 1;
  1214  002640  8490               	bsf	144,2,c	;volatile
  1215                           
  1216                           ;main.c: 211:         LATHbits.LATH1 = 0;
  1217  002642  9290               	bcf	144,1,c	;volatile
  1218                           
  1219                           ;main.c: 212:         LATHbits.LATH0 = 0;
  1220  002644  9090               	bcf	144,0,c	;volatile
  1221                           
  1222                           ;main.c: 213:         LATJ = bit1;
  1223  002646  C01F  FF91         	movff	update_display@bit1,3985	;volatile
  1224                           
  1225                           ;main.c: 214:     } else if (display_counter == 4) {
  1226  00264A  EF3D  F013         	goto	l158
  1227  00264E                     l3368:
  1228  00264E  0E04               	movlw	4
  1229  002650  1834               	xorwf	_display_counter^0,w,c
  1230  002652  1035               	iorwf	(_display_counter+1)^0,w,c
  1231  002654  A4D8               	btfss	status,2,c
  1232  002656  EF2F  F013         	goto	u3281
  1233  00265A  EF31  F013         	goto	u3280
  1234  00265E                     u3281:
  1235  00265E  EF3D  F013         	goto	l154
  1236  002662                     u3280:
  1237  002662                     
  1238                           ;main.c: 215:         LATHbits.LATH3 = 1;
  1239  002662  8690               	bsf	144,3,c	;volatile
  1240                           
  1241                           ;main.c: 216:         LATHbits.LATH2 = 0;
  1242  002664  9490               	bcf	144,2,c	;volatile
  1243                           
  1244                           ;main.c: 217:         LATHbits.LATH1 = 0;
  1245  002666  9290               	bcf	144,1,c	;volatile
  1246                           
  1247                           ;main.c: 218:         LATHbits.LATH0 = 0;
  1248  002668  9090               	bcf	144,0,c	;volatile
  1249                           
  1250                           ;main.c: 219:         LATJ = bit0;
  1251  00266A  C020  FF91         	movff	update_display@bit0,3985	;volatile
  1252  00266E                     
  1253                           ;main.c: 220:         display_counter = 0;
  1254  00266E  0E00               	movlw	0
  1255  002670  6E35               	movwf	(_display_counter+1)^0,c
  1256  002672  0E00               	movlw	0
  1257  002674  6E34               	movwf	_display_counter^0,c
  1258  002676  EF3D  F013         	goto	l158
  1259  00267A                     l154:
  1260  00267A                     l158:
  1261  00267A  0012               	return		;funcret
  1262  00267C                     __end_of_update_display:
  1263                           	callstack 0
  1264                           
  1265 ;; *************** function ___lwmod *****************
  1266 ;; Defined at:
  1267 ;;		line 7 in file "/opt/microchip/xc8/v2.30/pic/sources/c99/common/lwmod.c"
  1268 ;; Parameters:    Size  Location     Type
  1269 ;;  dividend        2   21[COMRAM] unsigned int 
  1270 ;;  divisor         2   23[COMRAM] unsigned int 
  1271 ;; Auto vars:     Size  Location     Type
  1272 ;;  counter         1   25[COMRAM] unsigned char 
  1273 ;; Return value:  Size  Location     Type
  1274 ;;                  2   21[COMRAM] unsigned int 
  1275 ;; Registers used:
  1276 ;;		wreg, status,2, status,0
  1277 ;; Tracked objects:
  1278 ;;		On entry : 0/0
  1279 ;;		On exit  : 0/0
  1280 ;;		Unchanged: 0/0
  1281 ;; Data sizes:     COMRAM   BANK0   BANK1   BANK2   BANK3   BANK4   BANK5   BANK6   BANK7   BANK8   BANK9  BANK10  BANK1
      +1  BANK12  BANK13  BANK14  BANK15
  1282 ;;      Params:         4       0       0       0       0       0       0       0       0       0       0       0       
      +0       0       0       0       0
  1283 ;;      Locals:         1       0       0       0       0       0       0       0       0       0       0       0       
      +0       0       0       0       0
  1284 ;;      Temps:          0       0       0       0       0       0       0       0       0       0       0       0       
      +0       0       0       0       0
  1285 ;;      Totals:         5       0       0       0       0       0       0       0       0       0       0       0       
      +0       0       0       0       0
  1286 ;;Total ram usage:        5 bytes
  1287 ;; Hardware stack levels used:    1
  1288 ;; Hardware stack levels required when called:    3
  1289 ;; This function calls:
  1290 ;;		Nothing
  1291 ;; This function is called by:
  1292 ;;		_update_display
  1293 ;; This function uses a non-reentrant model
  1294 ;;
  1295                           
  1296                           	psect	text2
  1297  0033E2                     __ptext2:
  1298                           	callstack 0
  1299  0033E2                     ___lwmod:
  1300                           	callstack 26
  1301  0033E2  5018               	movf	___lwmod@divisor^0,w,c
  1302  0033E4  1019               	iorwf	(___lwmod@divisor+1)^0,w,c
  1303  0033E6  B4D8               	btfsc	status,2,c
  1304  0033E8  EFF8  F019         	goto	u2041
  1305  0033EC  EFFA  F019         	goto	u2040
  1306  0033F0                     u2041:
  1307  0033F0  EF1E  F01A         	goto	l820
  1308  0033F4                     u2040:
  1309  0033F4  0E01               	movlw	1
  1310  0033F6  6E1A               	movwf	___lwmod@counter^0,c
  1311  0033F8  EF02  F01A         	goto	l2488
  1312  0033FC                     l2486:
  1313  0033FC  90D8               	bcf	status,0,c
  1314  0033FE  3618               	rlcf	___lwmod@divisor^0,f,c
  1315  003400  3619               	rlcf	(___lwmod@divisor+1)^0,f,c
  1316  003402  2A1A               	incf	___lwmod@counter^0,f,c
  1317  003404                     l2488:
  1318  003404  AE19               	btfss	(___lwmod@divisor+1)^0,7,c
  1319  003406  EF07  F01A         	goto	u2051
  1320  00340A  EF09  F01A         	goto	u2050
  1321  00340E                     u2051:
  1322  00340E  EFFE  F019         	goto	l2486
  1323  003412                     u2050:
  1324  003412                     l2490:
  1325  003412  5018               	movf	___lwmod@divisor^0,w,c
  1326  003414  5C16               	subwf	___lwmod@dividend^0,w,c
  1327  003416  5019               	movf	(___lwmod@divisor+1)^0,w,c
  1328  003418  5817               	subwfb	(___lwmod@dividend+1)^0,w,c
  1329  00341A  A0D8               	btfss	status,0,c
  1330  00341C  EF12  F01A         	goto	u2061
  1331  003420  EF14  F01A         	goto	u2060
  1332  003424                     u2061:
  1333  003424  EF18  F01A         	goto	l2494
  1334  003428                     u2060:
  1335  003428  5018               	movf	___lwmod@divisor^0,w,c
  1336  00342A  5E16               	subwf	___lwmod@dividend^0,f,c
  1337  00342C  5019               	movf	(___lwmod@divisor+1)^0,w,c
  1338  00342E  5A17               	subwfb	(___lwmod@dividend+1)^0,f,c
  1339  003430                     l2494:
  1340  003430  90D8               	bcf	status,0,c
  1341  003432  3219               	rrcf	(___lwmod@divisor+1)^0,f,c
  1342  003434  3218               	rrcf	___lwmod@divisor^0,f,c
  1343  003436  2E1A               	decfsz	___lwmod@counter^0,f,c
  1344  003438  EF09  F01A         	goto	l2490
  1345  00343C                     l820:
  1346  00343C  C016  F016         	movff	___lwmod@dividend,?___lwmod
  1347  003440  C017  F017         	movff	___lwmod@dividend+1,?___lwmod+1
  1348  003444  0012               	return		;funcret
  1349  003446                     __end_of___lwmod:
  1350                           	callstack 0
  1351                           
  1352 ;; *************** function _send_message *****************
  1353 ;; Defined at:
  1354 ;;		line 544 in file "main.c"
  1355 ;; Parameters:    Size  Location     Type
  1356 ;;		None
  1357 ;; Auto vars:     Size  Location     Type
  1358 ;;		None
  1359 ;; Return value:  Size  Location     Type
  1360 ;;                  1    wreg      void 
  1361 ;; Registers used:
  1362 ;;		wreg, fsr2l, fsr2h, status,2, status,0, cstack
  1363 ;; Tracked objects:
  1364 ;;		On entry : 0/0
  1365 ;;		On exit  : 0/0
  1366 ;;		Unchanged: 0/0
  1367 ;; Data sizes:     COMRAM   BANK0   BANK1   BANK2   BANK3   BANK4   BANK5   BANK6   BANK7   BANK8   BANK9  BANK10  BANK1
      +1  BANK12  BANK13  BANK14  BANK15
  1368 ;;      Params:         0       0       0       0       0       0       0       0       0       0       0       0       
      +0       0       0       0       0
  1369 ;;      Locals:         0       0       0       0       0       0       0       0       0       0       0       0       
      +0       0       0       0       0
  1370 ;;      Temps:          0       0       0       0       0       0       0       0       0       0       0       0       
      +0       0       0       0       0
  1371 ;;      Totals:         0       0       0       0       0       0       0       0       0       0       0       0       
      +0       0       0       0       0
  1372 ;;Total ram usage:        0 bytes
  1373 ;; Hardware stack levels used:    1
  1374 ;; Hardware stack levels required when called:    4
  1375 ;; This function calls:
  1376 ;;		___awdiv
  1377 ;;		___awmod
  1378 ;;		_buf_push
  1379 ;; This function is called by:
  1380 ;;		_main
  1381 ;; This function uses a non-reentrant model
  1382 ;;
  1383                           
  1384                           	psect	text3
  1385  002E94                     __ptext3:
  1386                           	callstack 0
  1387  002E94                     _send_message:
  1388                           	callstack 26
  1389  002E94                     
  1390                           ;main.c: 546:     if (new_message_flag) {
  1391  002E94  5036               	movf	_new_message_flag^0,w,c
  1392  002E96  1037               	iorwf	(_new_message_flag+1)^0,w,c
  1393  002E98  B4D8               	btfsc	status,2,c
  1394  002E9A  EF51  F017         	goto	u3361
  1395  002E9E  EF53  F017         	goto	u3360
  1396  002EA2                     u3361:
  1397  002EA2  EF5A  F017         	goto	l3434
  1398  002EA6                     u3360:
  1399  002EA6                     
  1400                           ;main.c: 547:         TXSTA1bits.TXEN = 1;
  1401  002EA6  8AAC               	bsf	172,5,c	;volatile
  1402  002EA8                     
  1403                           ;main.c: 548:         new_message_flag = 0;
  1404  002EA8  0E00               	movlw	0
  1405  002EAA  6E37               	movwf	(_new_message_flag+1)^0,c
  1406  002EAC  0E00               	movlw	0
  1407  002EAE  6E36               	movwf	_new_message_flag^0,c
  1408                           
  1409                           ;main.c: 549:     } else{
  1410  002EB0  EF9E  F017         	goto	l275
  1411  002EB4                     l3434:
  1412                           
  1413                           ;main.c: 551:         buf_push('$', OUTBUF);
  1414  002EB4  0E01               	movlw	1
  1415  002EB6  6E1D               	movwf	buf_push@buf^0,c
  1416  002EB8  0E24               	movlw	36
  1417  002EBA  EC41  F019         	call	_buf_push
  1418                           
  1419                           ;main.c: 552:         buf_push('E', OUTBUF);
  1420  002EBE  0E01               	movlw	1
  1421  002EC0  6E1D               	movwf	buf_push@buf^0,c
  1422  002EC2  0E45               	movlw	69
  1423  002EC4  EC41  F019         	call	_buf_push
  1424                           
  1425                           ;main.c: 553:         buf_push('M', OUTBUF);
  1426  002EC8  0E01               	movlw	1
  1427  002ECA  6E1D               	movwf	buf_push@buf^0,c
  1428  002ECC  0E4D               	movlw	77
  1429  002ECE  EC41  F019         	call	_buf_push
  1430                           
  1431                           ;main.c: 554:         buf_push('P', OUTBUF);
  1432  002ED2  0E01               	movlw	1
  1433  002ED4  6E1D               	movwf	buf_push@buf^0,c
  1434  002ED6  0E50               	movlw	80
  1435  002ED8  EC41  F019         	call	_buf_push
  1436                           
  1437                           ;main.c: 556:         buf_push( (park.available / 10) % 10 + '0' , OUTBUF);
  1438  002EDC  0E01               	movlw	1
  1439  002EDE  6E1D               	movwf	buf_push@buf^0,c
  1440  002EE0  0E00               	movlw	0
  1441  002EE2  6E12               	movwf	(___awdiv@divisor+1)^0,c
  1442  002EE4  0E0A               	movlw	10
  1443  002EE6  6E11               	movwf	___awdiv@divisor^0,c
  1444  002EE8  C300  F00F         	movff	_park,___awdiv@dividend
  1445  002EEC  C301  F010         	movff	_park+1,___awdiv@dividend+1
  1446  002EF0  EC90  F016         	call	___awdiv	;wreg free
  1447  002EF4  C00F  F017         	movff	?___awdiv,___awmod@dividend
  1448  002EF8  C010  F018         	movff	?___awdiv+1,___awmod@dividend+1
  1449  002EFC  0E00               	movlw	0
  1450  002EFE  6E1A               	movwf	(___awmod@divisor+1)^0,c
  1451  002F00  0E0A               	movlw	10
  1452  002F02  6E19               	movwf	___awmod@divisor^0,c
  1453  002F04  ECF2  F016         	call	___awmod	;wreg free
  1454  002F08  5017               	movf	?___awmod^0,w,c
  1455  002F0A  0F30               	addlw	48
  1456  002F0C  EC41  F019         	call	_buf_push
  1457                           
  1458                           ;main.c: 557:         buf_push( (park.available % 10) + '0', OUTBUF);
  1459  002F10  0E01               	movlw	1
  1460  002F12  6E1D               	movwf	buf_push@buf^0,c
  1461  002F14  C300  F017         	movff	_park,___awmod@dividend
  1462  002F18  C301  F018         	movff	_park+1,___awmod@dividend+1
  1463  002F1C  0E00               	movlw	0
  1464  002F1E  6E1A               	movwf	(___awmod@divisor+1)^0,c
  1465  002F20  0E0A               	movlw	10
  1466  002F22  6E19               	movwf	___awmod@divisor^0,c
  1467  002F24  ECF2  F016         	call	___awmod	;wreg free
  1468  002F28  5017               	movf	?___awmod^0,w,c
  1469  002F2A  0F30               	addlw	48
  1470  002F2C  EC41  F019         	call	_buf_push
  1471                           
  1472                           ;main.c: 558:         buf_push('#', OUTBUF);
  1473  002F30  0E01               	movlw	1
  1474  002F32  6E1D               	movwf	buf_push@buf^0,c
  1475  002F34  0E23               	movlw	35
  1476  002F36  EC41  F019         	call	_buf_push
  1477  002F3A                     
  1478                           ;main.c: 559:         TXSTA1bits.TXEN = 1;
  1479  002F3A  8AAC               	bsf	172,5,c	;volatile
  1480  002F3C                     l275:
  1481  002F3C  0012               	return		;funcret
  1482  002F3E                     __end_of_send_message:
  1483                           	callstack 0
  1484                           
  1485 ;; *************** function _receive_message *****************
  1486 ;; Defined at:
  1487 ;;		line 344 in file "main.c"
  1488 ;; Parameters:    Size  Location     Type
  1489 ;;		None
  1490 ;; Auto vars:     Size  Location     Type
  1491 ;;  c               1   44[COMRAM] unsigned char 
  1492 ;; Return value:  Size  Location     Type
  1493 ;;                  1    wreg      void 
  1494 ;; Registers used:
  1495 ;;		wreg, fsr1l, fsr1h, fsr2l, fsr2h, status,2, status,0, tblptrl, tblptrh, tblptru, prodl, prodh, cstack
  1496 ;; Tracked objects:
  1497 ;;		On entry : 0/0
  1498 ;;		On exit  : 0/0
  1499 ;;		Unchanged: 0/0
  1500 ;; Data sizes:     COMRAM   BANK0   BANK1   BANK2   BANK3   BANK4   BANK5   BANK6   BANK7   BANK8   BANK9  BANK10  BANK1
      +1  BANK12  BANK13  BANK14  BANK15
  1501 ;;      Params:         0       0       0       0       0       0       0       0       0       0       0       0       
      +0       0       0       0       0
  1502 ;;      Locals:         1       0       0       0       0       0       0       0       0       0       0       0       
      +0       0       0       0       0
  1503 ;;      Temps:          0       0       0       0       0       0       0       0       0       0       0       0       
      +0       0       0       0       0
  1504 ;;      Totals:         1       0       0       0       0       0       0       0       0       0       0       0       
      +0       0       0       0       0
  1505 ;;Total ram usage:        1 bytes
  1506 ;; Hardware stack levels used:    1
  1507 ;; Hardware stack levels required when called:    6
  1508 ;; This function calls:
  1509 ;;		_buf_isempty
  1510 ;;		_buf_pop
  1511 ;;		_disable_rxtx
  1512 ;;		_enable_rxtx
  1513 ;;		_eval_message
  1514 ;; This function is called by:
  1515 ;;		_main
  1516 ;; This function uses a non-reentrant model
  1517 ;;
  1518                           
  1519                           	psect	text4
  1520  002B80                     __ptext4:
  1521                           	callstack 0
  1522  002B80                     _receive_message:
  1523                           	callstack 24
  1524  002B80                     l3396:
  1525                           
  1526                           ;main.c: 346:     while (!buf_isempty(INBUF)) {
  1527  002B80  EF1D  F016         	goto	l3426
  1528  002B84                     l3398:
  1529                           
  1530                           ;main.c: 347:         disable_rxtx();
  1531  002B84  ECAF  F01A         	call	_disable_rxtx	;wreg free
  1532  002B88                     
  1533                           ;main.c: 348:         uint8_t c = buf_pop(INBUF);
  1534  002B88  0E00               	movlw	0
  1535  002B8A  ECEC  F017         	call	_buf_pop
  1536  002B8E  6E2D               	movwf	receive_message@c^0,c
  1537  002B90                     
  1538                           ;main.c: 349:         enable_rxtx();
  1539  002B90  ECAC  F01A         	call	_enable_rxtx	;wreg free
  1540  002B94                     
  1541                           ;main.c: 350:         if (c == '$') {
  1542  002B94  0E24               	movlw	36
  1543  002B96  182D               	xorwf	receive_message@c^0,w,c
  1544  002B98  A4D8               	btfss	status,2,c
  1545  002B9A  EFD1  F015         	goto	u3301
  1546  002B9E  EFD3  F015         	goto	u3300
  1547  002BA2                     u3301:
  1548  002BA2  EFDD  F015         	goto	l3408
  1549  002BA6                     u3300:
  1550  002BA6                     
  1551                           ;main.c: 351:             in_packet = 1;
  1552  002BA6  0E00               	movlw	0
  1553  002BA8  6E2F               	movwf	(_in_packet+1)^0,c
  1554  002BAA  0E01               	movlw	1
  1555  002BAC  6E2E               	movwf	_in_packet^0,c
  1556                           
  1557                           ;main.c: 352:             msg_len = 0;
  1558  002BAE  0E00               	movlw	0
  1559  002BB0  6E31               	movwf	(_msg_len+1)^0,c
  1560  002BB2  0E00               	movlw	0
  1561  002BB4  6E30               	movwf	_msg_len^0,c
  1562                           
  1563                           ;main.c: 353:         } else if (c == '#' && in_packet) {
  1564  002BB6  EF1D  F016         	goto	l3426
  1565  002BBA                     l3408:
  1566  002BBA  0E23               	movlw	35
  1567  002BBC  182D               	xorwf	receive_message@c^0,w,c
  1568  002BBE  A4D8               	btfss	status,2,c
  1569  002BC0  EFE4  F015         	goto	u3311
  1570  002BC4  EFE6  F015         	goto	u3310
  1571  002BC8                     u3311:
  1572  002BC8  EFFF  F015         	goto	l3418
  1573  002BCC                     u3310:
  1574  002BCC  502E               	movf	_in_packet^0,w,c
  1575  002BCE  102F               	iorwf	(_in_packet+1)^0,w,c
  1576  002BD0  B4D8               	btfsc	status,2,c
  1577  002BD2  EFED  F015         	goto	u3321
  1578  002BD6  EFEF  F015         	goto	u3320
  1579  002BDA                     u3321:
  1580  002BDA  EFFF  F015         	goto	l3418
  1581  002BDE                     u3320:
  1582  002BDE                     
  1583                           ;main.c: 354:             buffer[msg_len] = '\0';
  1584  002BDE  0E8C               	movlw	low _buffer
  1585  002BE0  2430               	addwf	_msg_len^0,w,c
  1586  002BE2  6ED9               	movwf	fsr2l,c
  1587  002BE4  0E00               	movlw	high _buffer
  1588  002BE6  2031               	addwfc	(_msg_len+1)^0,w,c
  1589  002BE8  6EDA               	movwf	fsr2h,c
  1590  002BEA  0E00               	movlw	0
  1591  002BEC  6EDF               	movwf	indf2,c
  1592  002BEE                     
  1593                           ;main.c: 355:             eval_message();
  1594  002BEE  EC10  F008         	call	_eval_message	;wreg free
  1595  002BF2                     
  1596                           ;main.c: 356:             in_packet = 0;
  1597  002BF2  0E00               	movlw	0
  1598  002BF4  6E2F               	movwf	(_in_packet+1)^0,c
  1599  002BF6  0E00               	movlw	0
  1600  002BF8  6E2E               	movwf	_in_packet^0,c
  1601                           
  1602                           ;main.c: 357:         } else if (in_packet && msg_len < sizeof(buffer) - 1) {
  1603  002BFA  EFC0  F015         	goto	l3396
  1604  002BFE                     l3418:
  1605  002BFE  502E               	movf	_in_packet^0,w,c
  1606  002C00  102F               	iorwf	(_in_packet+1)^0,w,c
  1607  002C02  B4D8               	btfsc	status,2,c
  1608  002C04  EF06  F016         	goto	u3331
  1609  002C08  EF08  F016         	goto	u3330
  1610  002C0C                     u3331:
  1611  002C0C  EFC0  F015         	goto	l3396
  1612  002C10                     u3330:
  1613  002C10  5031               	movf	(_msg_len+1)^0,w,c
  1614  002C12  E107               	bnz	u3341
  1615  002C14  0E13               	movlw	19
  1616  002C16  5C30               	subwf	_msg_len^0,w,c
  1617  002C18  B0D8               	btfsc	status,0,c
  1618  002C1A  EF11  F016         	goto	u3341
  1619  002C1E  EF13  F016         	goto	u3340
  1620  002C22                     u3341:
  1621  002C22  EFC0  F015         	goto	l3396
  1622  002C26                     u3340:
  1623  002C26                     
  1624                           ;main.c: 358:             buffer[msg_len++] = c;
  1625  002C26  0E8C               	movlw	low _buffer
  1626  002C28  2430               	addwf	_msg_len^0,w,c
  1627  002C2A  6ED9               	movwf	fsr2l,c
  1628  002C2C  0E00               	movlw	high _buffer
  1629  002C2E  2031               	addwfc	(_msg_len+1)^0,w,c
  1630  002C30  6EDA               	movwf	fsr2h,c
  1631  002C32  C02D  FFDF         	movff	receive_message@c,indf2
  1632  002C36  4A30               	infsnz	_msg_len^0,f,c
  1633  002C38  2A31               	incf	(_msg_len+1)^0,f,c
  1634  002C3A                     l3426:
  1635                           
  1636                           ;main.c: 346:     while (!buf_isempty(INBUF)) {
  1637  002C3A  0E00               	movlw	0
  1638  002C3C  EC23  F01A         	call	_buf_isempty
  1639  002C40  500F               	movf	?_buf_isempty^0,w,c
  1640  002C42  1010               	iorwf	(?_buf_isempty+1)^0,w,c
  1641  002C44  B4D8               	btfsc	status,2,c
  1642  002C46  EF27  F016         	goto	u3351
  1643  002C4A  EF29  F016         	goto	u3350
  1644  002C4E                     u3351:
  1645  002C4E  EFC2  F015         	goto	l3398
  1646  002C52                     u3350:
  1647  002C52  0012               	return		;funcret
  1648  002C54                     __end_of_receive_message:
  1649                           	callstack 0
  1650                           
  1651 ;; *************** function _eval_message *****************
  1652 ;; Defined at:
  1653 ;;		line 364 in file "main.c"
  1654 ;; Parameters:    Size  Location     Type
  1655 ;;		None
  1656 ;; Auto vars:     Size  Location     Type
  1657 ;;  fee             2    0[BANK0 ] int 
  1658 ;;  slot_no         2    7[BANK0 ] int 
  1659 ;;  id              2    2[BANK0 ] int 
  1660 ;;  lvl_no          1    6[BANK0 ] unsigned char 
  1661 ;;  tmp_slot        2   14[BANK0 ] int 
  1662 ;;  id              2    9[BANK0 ] int 
  1663 ;;  tmp_lvl         1   16[BANK0 ] unsigned char 
  1664 ;;  tmp_slot        2   12[BANK0 ] int 
  1665 ;;  id              2    4[BANK0 ] int 
  1666 ;;  tmp_lvl         1   11[BANK0 ] unsigned char 
  1667 ;; Return value:  Size  Location     Type
  1668 ;;                  1    wreg      void 
  1669 ;; Registers used:
  1670 ;;		wreg, fsr1l, fsr1h, fsr2l, fsr2h, status,2, status,0, tblptrl, tblptrh, tblptru, prodl, prodh, cstack
  1671 ;; Tracked objects:
  1672 ;;		On entry : 0/0
  1673 ;;		On exit  : 0/0
  1674 ;;		Unchanged: 0/0
  1675 ;; Data sizes:     COMRAM   BANK0   BANK1   BANK2   BANK3   BANK4   BANK5   BANK6   BANK7   BANK8   BANK9  BANK10  BANK1
      +1  BANK12  BANK13  BANK14  BANK15
  1676 ;;      Params:         0       0       0       0       0       0       0       0       0       0       0       0       
      +0       0       0       0       0
  1677 ;;      Locals:         0      17       0       0       0       0       0       0       0       0       0       0       
      +0       0       0       0       0
  1678 ;;      Temps:          8       0       0       0       0       0       0       0       0       0       0       0       
      +0       0       0       0       0
  1679 ;;      Totals:         8      17       0       0       0       0       0       0       0       0       0       0       
      +0       0       0       0       0
  1680 ;;Total ram usage:       25 bytes
  1681 ;; Hardware stack levels used:    1
  1682 ;; Hardware stack levels required when called:    5
  1683 ;; This function calls:
  1684 ;;		___awdiv
  1685 ;;		___awmod
  1686 ;;		___lwdiv
  1687 ;;		_buf_push
  1688 ;;		_dequeue
  1689 ;;		_disable_rxtx
  1690 ;;		_enable_rxtx
  1691 ;;		_enqueue
  1692 ;;		_find_park_available_slot
  1693 ;;		_find_parked
  1694 ;;		_find_subscribed
  1695 ;;		_is_same
  1696 ;; This function is called by:
  1697 ;;		_receive_message
  1698 ;; This function uses a non-reentrant model
  1699 ;;
  1700                           
  1701                           	psect	text5
  1702  001020                     __ptext5:
  1703                           	callstack 0
  1704  001020                     _eval_message:
  1705                           	callstack 24
  1706  001020                     
  1707                           ;main.c: 365:     if (is_same(buffer, "GO", 2) ) {
  1708  001020  0E8C               	movlw	low _buffer
  1709  001022  6E0F               	movwf	is_same@a^0,c
  1710  001024  0E00               	movlw	high _buffer
  1711  001026  6E10               	movwf	(is_same@a+1)^0,c
  1712  001028  0E1B               	movlw	low STR_1
  1713  00102A  6E11               	movwf	is_same@b^0,c
  1714  00102C  0E10               	movlw	high STR_1
  1715  00102E  6E12               	movwf	(is_same@b+1)^0,c
  1716  001030  0E00               	movlw	0
  1717  001032  6E14               	movwf	(is_same@n+1)^0,c
  1718  001034  0E02               	movlw	2
  1719  001036  6E13               	movwf	is_same@n^0,c
  1720  001038  EC03  F019         	call	_is_same	;wreg free
  1721  00103C  500F               	movf	?_is_same^0,w,c
  1722  00103E  1010               	iorwf	(?_is_same+1)^0,w,c
  1723  001040  B4D8               	btfsc	status,2,c
  1724  001042  EF25  F008         	goto	u2811
  1725  001046  EF27  F008         	goto	u2810
  1726  00104A                     u2811:
  1727  00104A  EF2E  F008         	goto	l3042
  1728  00104E                     u2810:
  1729  00104E                     
  1730                           ;main.c: 366:         run_flag = 1;
  1731  00104E  0E00               	movlw	0
  1732  001050  6E47               	movwf	(_run_flag+1)^0,c
  1733  001052  0E01               	movlw	1
  1734  001054  6E46               	movwf	_run_flag^0,c
  1735  001056                     
  1736                           ;main.c: 367:         T0CONbits.TMR0ON = 1;
  1737  001056  8ED5               	bsf	213,7,c	;volatile
  1738                           
  1739                           ;main.c: 368:     } else if (is_same(buffer, "END", 3) ) {
  1740  001058  EFA2  F010         	goto	l228
  1741  00105C                     l3042:
  1742  00105C  0E8C               	movlw	low _buffer
  1743  00105E  6E0F               	movwf	is_same@a^0,c
  1744  001060  0E00               	movlw	high _buffer
  1745  001062  6E10               	movwf	(is_same@a+1)^0,c
  1746  001064  0E0F               	movlw	low STR_3
  1747  001066  6E11               	movwf	is_same@b^0,c
  1748  001068  0E10               	movlw	high STR_3
  1749  00106A  6E12               	movwf	(is_same@b+1)^0,c
  1750  00106C  0E00               	movlw	0
  1751  00106E  6E14               	movwf	(is_same@n+1)^0,c
  1752  001070  0E03               	movlw	3
  1753  001072  6E13               	movwf	is_same@n^0,c
  1754  001074  EC03  F019         	call	_is_same	;wreg free
  1755  001078  500F               	movf	?_is_same^0,w,c
  1756  00107A  1010               	iorwf	(?_is_same+1)^0,w,c
  1757  00107C  B4D8               	btfsc	status,2,c
  1758  00107E  EF43  F008         	goto	u2821
  1759  001082  EF45  F008         	goto	u2820
  1760  001086                     u2821:
  1761  001086  EF4B  F008         	goto	l3046
  1762  00108A                     u2820:
  1763  00108A                     
  1764                           ;main.c: 369:         run_flag = 0;
  1765  00108A  0E00               	movlw	0
  1766  00108C  6E47               	movwf	(_run_flag+1)^0,c
  1767  00108E  0E00               	movlw	0
  1768  001090  6E46               	movwf	_run_flag^0,c
  1769                           
  1770                           ;main.c: 370:     } else if (is_same(buffer, "PRK", 3) && run_flag) {
  1771  001092  EFA2  F010         	goto	l228
  1772  001096                     l3046:
  1773  001096  0E8C               	movlw	low _buffer
  1774  001098  6E0F               	movwf	is_same@a^0,c
  1775  00109A  0E00               	movlw	high _buffer
  1776  00109C  6E10               	movwf	(is_same@a+1)^0,c
  1777  00109E  0E13               	movlw	low STR_5
  1778  0010A0  6E11               	movwf	is_same@b^0,c
  1779  0010A2  0E10               	movlw	high STR_5
  1780  0010A4  6E12               	movwf	(is_same@b+1)^0,c
  1781  0010A6  0E00               	movlw	0
  1782  0010A8  6E14               	movwf	(is_same@n+1)^0,c
  1783  0010AA  0E03               	movlw	3
  1784  0010AC  6E13               	movwf	is_same@n^0,c
  1785  0010AE  EC03  F019         	call	_is_same	;wreg free
  1786  0010B2  500F               	movf	?_is_same^0,w,c
  1787  0010B4  1010               	iorwf	(?_is_same+1)^0,w,c
  1788  0010B6  B4D8               	btfsc	status,2,c
  1789  0010B8  EF60  F008         	goto	u2831
  1790  0010BC  EF62  F008         	goto	u2830
  1791  0010C0                     u2831:
  1792  0010C0  EF95  F00A         	goto	l3140
  1793  0010C4                     u2830:
  1794  0010C4  5046               	movf	_run_flag^0,w,c
  1795  0010C6  1047               	iorwf	(_run_flag+1)^0,w,c
  1796  0010C8  B4D8               	btfsc	status,2,c
  1797  0010CA  EF69  F008         	goto	u2841
  1798  0010CE  EF6B  F008         	goto	u2840
  1799  0010D2                     u2841:
  1800  0010D2  EF95  F00A         	goto	l3140
  1801  0010D6                     u2840:
  1802  0010D6                     
  1803                           ;main.c: 372:         if(buffer[3] < '0' || buffer[3] > '9') return;
  1804  0010D6  0E2F               	movlw	47
  1805  0010D8  0100               	movlb	0	; () banked
  1806  0010DA  658F               	cpfsgt	(_buffer+3)& (0+255),b
  1807  0010DC  EF72  F008         	goto	u2851
  1808  0010E0  EF74  F008         	goto	u2850
  1809  0010E4                     u2851:
  1810  0010E4  EFA2  F010         	goto	l228
  1811  0010E8                     u2850:
  1812  0010E8                     
  1813                           ; BSR set to: 0
  1814  0010E8  0E39               	movlw	57
  1815  0010EA  658F               	cpfsgt	(_buffer+3)& (0+255),b
  1816  0010EC  EF7A  F008         	goto	u2861
  1817  0010F0  EF7C  F008         	goto	u2860
  1818  0010F4                     u2861:
  1819  0010F4  EF80  F008         	goto	l3054
  1820  0010F8                     u2860:
  1821  0010F8  EFA2  F010         	goto	l228
  1822  0010FC                     l227:
  1823  0010FC  EFA2  F010         	goto	l228
  1824  001100                     l3054:
  1825                           
  1826                           ; BSR set to: 0
  1827                           ;main.c: 373:         if(buffer[4] < '0' || buffer[4] > '9') return;
  1828  001100  0E2F               	movlw	47
  1829  001102  6590               	cpfsgt	(_buffer+4)& (0+255),b
  1830  001104  EF86  F008         	goto	u2871
  1831  001108  EF88  F008         	goto	u2870
  1832  00110C                     u2871:
  1833  00110C  EFA2  F010         	goto	l228
  1834  001110                     u2870:
  1835  001110                     
  1836                           ; BSR set to: 0
  1837  001110  0E39               	movlw	57
  1838  001112  6590               	cpfsgt	(_buffer+4)& (0+255),b
  1839  001114  EF8E  F008         	goto	u2881
  1840  001118  EF90  F008         	goto	u2880
  1841  00111C                     u2881:
  1842  00111C  EF92  F008         	goto	l3058
  1843  001120                     u2880:
  1844  001120  EFA2  F010         	goto	l228
  1845  001124                     l3058:
  1846                           
  1847                           ; BSR set to: 0
  1848                           ;main.c: 374:         if(buffer[5] < '0' || buffer[5] > '9') return;
  1849  001124  0E2F               	movlw	47
  1850  001126  6591               	cpfsgt	(_buffer+5)& (0+255),b
  1851  001128  EF98  F008         	goto	u2891
  1852  00112C  EF9A  F008         	goto	u2890
  1853  001130                     u2891:
  1854  001130  EFA2  F010         	goto	l228
  1855  001134                     u2890:
  1856  001134                     
  1857                           ; BSR set to: 0
  1858  001134  0E39               	movlw	57
  1859  001136  6591               	cpfsgt	(_buffer+5)& (0+255),b
  1860  001138  EFA0  F008         	goto	u2901
  1861  00113C  EFA2  F008         	goto	u2900
  1862  001140                     u2901:
  1863  001140  EFA4  F008         	goto	l3062
  1864  001144                     u2900:
  1865  001144  EFA2  F010         	goto	l228
  1866  001148                     l3062:
  1867                           
  1868                           ; BSR set to: 0
  1869                           ;main.c: 376:         int id = (buffer[3] - '0') * 100 + (buffer[4] - '0') * 10 + (buffe
      +                          r[5] - '0');
  1870  001148  518F               	movf	(_buffer+3)& (0+255),w,b
  1871  00114A  0D64               	mullw	100
  1872  00114C  CFF3 F025          	movff	prodl,??_eval_message
  1873  001150  CFF4 F026          	movff	prodh,??_eval_message+1
  1874  001154  5190               	movf	(_buffer+4)& (0+255),w,b
  1875  001156  0D0A               	mullw	10
  1876  001158  50F3               	movf	243,w,c
  1877  00115A  2625               	addwf	??_eval_message^0,f,c
  1878  00115C  50F4               	movf	244,w,c
  1879  00115E  2226               	addwfc	(??_eval_message+1)^0,f,c
  1880  001160  5191               	movf	(_buffer+5)& (0+255),w,b
  1881  001162  2625               	addwf	??_eval_message^0,f,c
  1882  001164  0E00               	movlw	0
  1883  001166  2226               	addwfc	(??_eval_message+1)^0,f,c
  1884  001168  0E30               	movlw	48
  1885  00116A  2425               	addwf	??_eval_message^0,w,c
  1886  00116C  6FA4               	movwf	eval_message@id& (0+255),b
  1887  00116E  0EEB               	movlw	235
  1888  001170  2026               	addwfc	(??_eval_message+1)^0,w,c
  1889  001172  6FA5               	movwf	(eval_message@id+1)& (0+255),b
  1890  001174                     
  1891                           ; BSR set to: 0
  1892                           ;main.c: 377:         int tmp_slot;;main.c: 378:         char tmp_lvl;;main.c: 380:     
      +                              if(find_subscribed(&tmp_lvl, &tmp_slot, id)){
  1893  001174  0EAB               	movlw	low eval_message@tmp_lvl
  1894  001176  6E15               	movwf	find_subscribed@level^0,c
  1895  001178  0E00               	movlw	high eval_message@tmp_lvl
  1896  00117A  6E16               	movwf	(find_subscribed@level+1)^0,c
  1897  00117C  0EAC               	movlw	low eval_message@tmp_slot
  1898  00117E  6E17               	movwf	find_subscribed@slot^0,c
  1899  001180  0E00               	movlw	high eval_message@tmp_slot
  1900  001182  6E18               	movwf	(find_subscribed@slot+1)^0,c
  1901  001184  C0A4  F019         	movff	eval_message@id,find_subscribed@id
  1902  001188  C0A5  F01A         	movff	eval_message@id+1,find_subscribed@id+1
  1903  00118C  EC3E  F013         	call	_find_subscribed	;wreg free
  1904  001190  5015               	movf	?_find_subscribed^0,w,c
  1905  001192  1016               	iorwf	(?_find_subscribed+1)^0,w,c
  1906  001194  B4D8               	btfsc	status,2,c
  1907  001196  EFCF  F008         	goto	u2911
  1908  00119A  EFD1  F008         	goto	u2910
  1909  00119E                     u2911:
  1910  00119E  EFBF  F009         	goto	l3098
  1911  0011A2                     u2910:
  1912  0011A2                     
  1913                           ;main.c: 381:             park.floors[tmp_lvl - 'A'].slots[tmp_slot].entry_time = time_c
      +                          ounter;
  1914  0011A2  C0AC  F025         	movff	eval_message@tmp_slot,??_eval_message
  1915  0011A6  C0AD  F026         	movff	eval_message@tmp_slot+1,??_eval_message+1
  1916  0011AA  90D8               	bcf	status,0,c
  1917  0011AC  3625               	rlcf	??_eval_message^0,f,c
  1918  0011AE  3626               	rlcf	(??_eval_message+1)^0,f,c
  1919  0011B0  90D8               	bcf	status,0,c
  1920  0011B2  3625               	rlcf	??_eval_message^0,f,c
  1921  0011B4  3626               	rlcf	(??_eval_message+1)^0,f,c
  1922  0011B6  90D8               	bcf	status,0,c
  1923  0011B8  3625               	rlcf	??_eval_message^0,f,c
  1924  0011BA  3626               	rlcf	(??_eval_message+1)^0,f,c
  1925  0011BC  0100               	movlb	0	; () banked
  1926  0011BE  51AB               	movf	eval_message@tmp_lvl& (0+255),w,b
  1927  0011C0  0D53               	mullw	83
  1928  0011C2  0EF4               	movlw	244
  1929  0011C4  6E27               	movwf	(??_eval_message+2)^0,c
  1930  0011C6  0EEA               	movlw	234
  1931  0011C8  6E28               	movwf	(??_eval_message+3)^0,c
  1932  0011CA  0E00               	movlw	low _park
  1933  0011CC  6E29               	movwf	(??_eval_message+4)^0,c
  1934  0011CE  0E03               	movlw	high _park
  1935  0011D0  6E2A               	movwf	(??_eval_message+5)^0,c
  1936  0011D2  5027               	movf	(??_eval_message+2)^0,w,c
  1937  0011D4  2629               	addwf	(??_eval_message+4)^0,f,c
  1938  0011D6  5028               	movf	(??_eval_message+3)^0,w,c
  1939  0011D8  222A               	addwfc	(??_eval_message+5)^0,f,c
  1940  0011DA  50F3               	movf	243,w,c
  1941  0011DC  2629               	addwf	(??_eval_message+4)^0,f,c
  1942  0011DE  50F4               	movf	244,w,c
  1943  0011E0  222A               	addwfc	(??_eval_message+5)^0,f,c
  1944  0011E2  5025               	movf	??_eval_message^0,w,c
  1945  0011E4  2429               	addwf	(??_eval_message+4)^0,w,c
  1946  0011E6  6ED9               	movwf	fsr2l,c
  1947  0011E8  5026               	movf	(??_eval_message+1)^0,w,c
  1948  0011EA  202A               	addwfc	(??_eval_message+5)^0,w,c
  1949  0011EC  6EDA               	movwf	fsr2h,c
  1950  0011EE  C04B  FFDE         	movff	_time_counter,postinc2
  1951  0011F2  C04C  FFDD         	movff	_time_counter+1,postdec2
  1952                           
  1953                           ;main.c: 382:             park.floors[tmp_lvl - 'A'].slots[tmp_slot].occupied = 1;
  1954  0011F6  C0AC  F025         	movff	eval_message@tmp_slot,??_eval_message
  1955  0011FA  C0AD  F026         	movff	eval_message@tmp_slot+1,??_eval_message+1
  1956  0011FE  90D8               	bcf	status,0,c
  1957  001200  3625               	rlcf	??_eval_message^0,f,c
  1958  001202  3626               	rlcf	(??_eval_message+1)^0,f,c
  1959  001204  90D8               	bcf	status,0,c
  1960  001206  3625               	rlcf	??_eval_message^0,f,c
  1961  001208  3626               	rlcf	(??_eval_message+1)^0,f,c
  1962  00120A  90D8               	bcf	status,0,c
  1963  00120C  3625               	rlcf	??_eval_message^0,f,c
  1964  00120E  3626               	rlcf	(??_eval_message+1)^0,f,c
  1965  001210  51AB               	movf	eval_message@tmp_lvl& (0+255),w,b
  1966  001212  0D53               	mullw	83
  1967  001214  0EF6               	movlw	246
  1968  001216  6E27               	movwf	(??_eval_message+2)^0,c
  1969  001218  0EEA               	movlw	234
  1970  00121A  6E28               	movwf	(??_eval_message+3)^0,c
  1971  00121C  0E00               	movlw	low _park
  1972  00121E  6E29               	movwf	(??_eval_message+4)^0,c
  1973  001220  0E03               	movlw	high _park
  1974  001222  6E2A               	movwf	(??_eval_message+5)^0,c
  1975  001224  5027               	movf	(??_eval_message+2)^0,w,c
  1976  001226  2629               	addwf	(??_eval_message+4)^0,f,c
  1977  001228  5028               	movf	(??_eval_message+3)^0,w,c
  1978  00122A  222A               	addwfc	(??_eval_message+5)^0,f,c
  1979  00122C  50F3               	movf	243,w,c
  1980  00122E  2629               	addwf	(??_eval_message+4)^0,f,c
  1981  001230  50F4               	movf	244,w,c
  1982  001232  222A               	addwfc	(??_eval_message+5)^0,f,c
  1983  001234  5025               	movf	??_eval_message^0,w,c
  1984  001236  2429               	addwf	(??_eval_message+4)^0,w,c
  1985  001238  6ED9               	movwf	fsr2l,c
  1986  00123A  5026               	movf	(??_eval_message+1)^0,w,c
  1987  00123C  202A               	addwfc	(??_eval_message+5)^0,w,c
  1988  00123E  6EDA               	movwf	fsr2h,c
  1989  001240  0E01               	movlw	1
  1990  001242  6EDE               	movwf	postinc2,c
  1991  001244  0E00               	movlw	0
  1992  001246  6EDD               	movwf	postdec2,c
  1993                           
  1994                           ;main.c: 383:             park.floors[tmp_lvl - 'A'].available_f--;
  1995  001248  51AB               	movf	eval_message@tmp_lvl& (0+255),w,b
  1996  00124A  0D53               	mullw	83
  1997  00124C  0E40               	movlw	low (_park+60224)
  1998  00124E  24F3               	addwf	243,w,c
  1999  001250  6ED9               	movwf	fsr2l,c
  2000  001252  0EEE               	movlw	high (_park+60224)
  2001  001254  20F4               	addwfc	prodh,w,c
  2002  001256  6EDA               	movwf	fsr2h,c
  2003  001258  06DE               	decf	postinc2,f,c
  2004  00125A  0E00               	movlw	0
  2005  00125C  5ADD               	subwfb	postdec2,f,c
  2006  00125E                     
  2007                           ; BSR set to: 0
  2008                           ;main.c: 384:             park.available--;
  2009  00125E  EE23  F000         	lfsr	2,_park
  2010  001262  06DE               	decf	postinc2,f,c
  2011  001264  0E00               	movlw	0
  2012  001266  5ADD               	subwfb	postdec2,f,c
  2013  001268                     
  2014                           ; BSR set to: 0
  2015                           ;main.c: 385:             tmp_slot++;
  2016  001268  4BAC               	infsnz	eval_message@tmp_slot& (0+255),f,b
  2017  00126A  2BAD               	incf	(eval_message@tmp_slot+1)& (0+255),f,b
  2018  00126C                     
  2019                           ; BSR set to: 0
  2020                           ;main.c: 386:             buf_push('$', OUTBUF);
  2021  00126C  0E01               	movlw	1
  2022  00126E  6E1D               	movwf	buf_push@buf^0,c
  2023  001270  0E24               	movlw	36
  2024  001272  EC41  F019         	call	_buf_push
  2025  001276                     
  2026                           ;main.c: 387:             buf_push('S', OUTBUF);
  2027  001276  0E01               	movlw	1
  2028  001278  6E1D               	movwf	buf_push@buf^0,c
  2029  00127A  0E53               	movlw	83
  2030  00127C  EC41  F019         	call	_buf_push
  2031  001280                     
  2032                           ;main.c: 388:             buf_push('P', OUTBUF);
  2033  001280  0E01               	movlw	1
  2034  001282  6E1D               	movwf	buf_push@buf^0,c
  2035  001284  0E50               	movlw	80
  2036  001286  EC41  F019         	call	_buf_push
  2037  00128A                     
  2038                           ;main.c: 389:             buf_push('C', OUTBUF);
  2039  00128A  0E01               	movlw	1
  2040  00128C  6E1D               	movwf	buf_push@buf^0,c
  2041  00128E  0E43               	movlw	67
  2042  001290  EC41  F019         	call	_buf_push
  2043  001294                     
  2044                           ;main.c: 390:             buf_push((id / 100) % 10 + '0', OUTBUF);
  2045  001294  0E01               	movlw	1
  2046  001296  6E1D               	movwf	buf_push@buf^0,c
  2047  001298  0E00               	movlw	0
  2048  00129A  6E12               	movwf	(___awdiv@divisor+1)^0,c
  2049  00129C  0E64               	movlw	100
  2050  00129E  6E11               	movwf	___awdiv@divisor^0,c
  2051  0012A0  C0A4  F00F         	movff	eval_message@id,___awdiv@dividend
  2052  0012A4  C0A5  F010         	movff	eval_message@id+1,___awdiv@dividend+1
  2053  0012A8  EC90  F016         	call	___awdiv	;wreg free
  2054  0012AC  C00F  F017         	movff	?___awdiv,___awmod@dividend
  2055  0012B0  C010  F018         	movff	?___awdiv+1,___awmod@dividend+1
  2056  0012B4  0E00               	movlw	0
  2057  0012B6  6E1A               	movwf	(___awmod@divisor+1)^0,c
  2058  0012B8  0E0A               	movlw	10
  2059  0012BA  6E19               	movwf	___awmod@divisor^0,c
  2060  0012BC  ECF2  F016         	call	___awmod	;wreg free
  2061  0012C0  5017               	movf	?___awmod^0,w,c
  2062  0012C2  0F30               	addlw	48
  2063  0012C4  EC41  F019         	call	_buf_push
  2064  0012C8                     
  2065                           ;main.c: 391:             buf_push((id / 10) % 10 + '0', OUTBUF);
  2066  0012C8  0E01               	movlw	1
  2067  0012CA  6E1D               	movwf	buf_push@buf^0,c
  2068  0012CC  0E00               	movlw	0
  2069  0012CE  6E12               	movwf	(___awdiv@divisor+1)^0,c
  2070  0012D0  0E0A               	movlw	10
  2071  0012D2  6E11               	movwf	___awdiv@divisor^0,c
  2072  0012D4  C0A4  F00F         	movff	eval_message@id,___awdiv@dividend
  2073  0012D8  C0A5  F010         	movff	eval_message@id+1,___awdiv@dividend+1
  2074  0012DC  EC90  F016         	call	___awdiv	;wreg free
  2075  0012E0  C00F  F017         	movff	?___awdiv,___awmod@dividend
  2076  0012E4  C010  F018         	movff	?___awdiv+1,___awmod@dividend+1
  2077  0012E8  0E00               	movlw	0
  2078  0012EA  6E1A               	movwf	(___awmod@divisor+1)^0,c
  2079  0012EC  0E0A               	movlw	10
  2080  0012EE  6E19               	movwf	___awmod@divisor^0,c
  2081  0012F0  ECF2  F016         	call	___awmod	;wreg free
  2082  0012F4  5017               	movf	?___awmod^0,w,c
  2083  0012F6  0F30               	addlw	48
  2084  0012F8  EC41  F019         	call	_buf_push
  2085  0012FC                     
  2086                           ;main.c: 392:             buf_push((id % 10) + '0', OUTBUF);
  2087  0012FC  0E01               	movlw	1
  2088  0012FE  6E1D               	movwf	buf_push@buf^0,c
  2089  001300  C0A4  F017         	movff	eval_message@id,___awmod@dividend
  2090  001304  C0A5  F018         	movff	eval_message@id+1,___awmod@dividend+1
  2091  001308  0E00               	movlw	0
  2092  00130A  6E1A               	movwf	(___awmod@divisor+1)^0,c
  2093  00130C  0E0A               	movlw	10
  2094  00130E  6E19               	movwf	___awmod@divisor^0,c
  2095  001310  ECF2  F016         	call	___awmod	;wreg free
  2096  001314  5017               	movf	?___awmod^0,w,c
  2097  001316  0F30               	addlw	48
  2098  001318  EC41  F019         	call	_buf_push
  2099  00131C                     
  2100                           ;main.c: 393:             buf_push(tmp_lvl, OUTBUF);
  2101  00131C  0E01               	movlw	1
  2102  00131E  6E1D               	movwf	buf_push@buf^0,c
  2103  001320  0100               	movlb	0	; () banked
  2104  001322  51AB               	movf	eval_message@tmp_lvl& (0+255),w,b
  2105  001324  EC41  F019         	call	_buf_push
  2106  001328                     
  2107                           ;main.c: 394:             buf_push((tmp_slot / 10) + '0', OUTBUF);
  2108  001328  0E01               	movlw	1
  2109  00132A  6E1D               	movwf	buf_push@buf^0,c
  2110  00132C  C0AC  F00F         	movff	eval_message@tmp_slot,___awdiv@dividend
  2111  001330  C0AD  F010         	movff	eval_message@tmp_slot+1,___awdiv@dividend+1
  2112  001334  0E00               	movlw	0
  2113  001336  6E12               	movwf	(___awdiv@divisor+1)^0,c
  2114  001338  0E0A               	movlw	10
  2115  00133A  6E11               	movwf	___awdiv@divisor^0,c
  2116  00133C  EC90  F016         	call	___awdiv	;wreg free
  2117  001340  500F               	movf	?___awdiv^0,w,c
  2118  001342  0F30               	addlw	48
  2119  001344  EC41  F019         	call	_buf_push
  2120  001348                     
  2121                           ;main.c: 395:             buf_push((tmp_slot % 10) + '0', OUTBUF);
  2122  001348  0E01               	movlw	1
  2123  00134A  6E1D               	movwf	buf_push@buf^0,c
  2124  00134C  C0AC  F017         	movff	eval_message@tmp_slot,___awmod@dividend
  2125  001350  C0AD  F018         	movff	eval_message@tmp_slot+1,___awmod@dividend+1
  2126  001354  0E00               	movlw	0
  2127  001356  6E1A               	movwf	(___awmod@divisor+1)^0,c
  2128  001358  0E0A               	movlw	10
  2129  00135A  6E19               	movwf	___awmod@divisor^0,c
  2130  00135C  ECF2  F016         	call	___awmod	;wreg free
  2131  001360  5017               	movf	?___awmod^0,w,c
  2132  001362  0F30               	addlw	48
  2133  001364  EC41  F019         	call	_buf_push
  2134  001368                     
  2135                           ;main.c: 396:             buf_push('#', OUTBUF);
  2136  001368  0E01               	movlw	1
  2137  00136A  6E1D               	movwf	buf_push@buf^0,c
  2138  00136C  0E23               	movlw	35
  2139  00136E  EC41  F019         	call	_buf_push
  2140  001372                     l3094:
  2141                           
  2142                           ;main.c: 397:             new_message_flag = 1;
  2143  001372  0E00               	movlw	0
  2144  001374  6E37               	movwf	(_new_message_flag+1)^0,c
  2145  001376  0E01               	movlw	1
  2146  001378  6E36               	movwf	_new_message_flag^0,c
  2147  00137A  EFA2  F010         	goto	l228
  2148  00137E                     l3098:
  2149                           
  2150                           ;main.c: 401:         enqueue(id);
  2151  00137E  C0A4  F00F         	movff	eval_message@id,enqueue@car_id
  2152  001382  C0A5  F010         	movff	eval_message@id+1,enqueue@car_id+1
  2153  001386  EC65  F01A         	call	_enqueue	;wreg free
  2154  00138A                     
  2155                           ;main.c: 404:         if (park.available > 0 && q.count > 0) {
  2156  00138A  EE23  F000         	lfsr	2,_park
  2157  00138E  0E01               	movlw	1
  2158  001390  BEDB               	btfsc	plusw2,7,c
  2159  001392  EFD4  F009         	goto	u2921
  2160  001396  0E01               	movlw	1
  2161  001398  50DB               	movf	plusw2,w,c
  2162  00139A  E108               	bnz	u2920
  2163  00139C  04DE               	decf	postinc2,w,c
  2164  00139E  A0D8               	btfss	status,0,c
  2165  0013A0  EFD4  F009         	goto	u2921
  2166  0013A4  EFD6  F009         	goto	u2920
  2167  0013A8                     u2921:
  2168  0013A8  EFA2  F010         	goto	l228
  2169  0013AC                     u2920:
  2170  0013AC  0100               	movlb	0	; () banked
  2171  0013AE  BF83               	btfsc	(_q+35)& (0+255),7,b
  2172  0013B0  EFE2  F009         	goto	u2931
  2173  0013B4  5183               	movf	(_q+35)& (0+255),w,b
  2174  0013B6  E108               	bnz	u2930
  2175  0013B8  0582               	decf	(_q+34)& (0+255),w,b
  2176  0013BA  A0D8               	btfss	status,0,c
  2177  0013BC  EFE2  F009         	goto	u2931
  2178  0013C0  EFE4  F009         	goto	u2930
  2179  0013C4                     u2931:
  2180  0013C4  EFA2  F010         	goto	l228
  2181  0013C8                     u2930:
  2182  0013C8                     
  2183                           ; BSR set to: 0
  2184                           ;main.c: 405:             temp_id = dequeue();
  2185  0013C8  EC9F  F017         	call	_dequeue	;wreg free
  2186  0013CC  C00F  F038         	movff	?_dequeue,_temp_id
  2187  0013D0  C010  F039         	movff	?_dequeue+1,_temp_id+1
  2188  0013D4                     
  2189                           ;main.c: 406:             if(find_park_available_slot(&tmp_lvl, &tmp_slot, temp_id) ){
  2190  0013D4  0EAB               	movlw	low eval_message@tmp_lvl
  2191  0013D6  6E15               	movwf	find_park_available_slot@level^0,c
  2192  0013D8  0E00               	movlw	high eval_message@tmp_lvl
  2193  0013DA  6E16               	movwf	(find_park_available_slot@level+1)^0,c
  2194  0013DC  0EAC               	movlw	low eval_message@tmp_slot
  2195  0013DE  6E17               	movwf	find_park_available_slot@slot^0,c
  2196  0013E0  0E00               	movlw	high eval_message@tmp_slot
  2197  0013E2  6E18               	movwf	(find_park_available_slot@slot+1)^0,c
  2198  0013E4  C038  F019         	movff	_temp_id,find_park_available_slot@temp_id
  2199  0013E8  C039  F01A         	movff	_temp_id+1,find_park_available_slot@temp_id+1
  2200  0013EC  ECA3  F010         	call	_find_park_available_slot	;wreg free
  2201  0013F0  5015               	movf	?_find_park_available_slot^0,w,c
  2202  0013F2  1016               	iorwf	(?_find_park_available_slot+1)^0,w,c
  2203  0013F4  B4D8               	btfsc	status,2,c
  2204  0013F6  EFFF  F009         	goto	u2941
  2205  0013FA  EF01  F00A         	goto	u2940
  2206  0013FE                     u2941:
  2207  0013FE  EF8D  F00A         	goto	l3138
  2208  001402                     u2940:
  2209  001402                     
  2210                           ;main.c: 407:                 tmp_slot++;
  2211  001402  0100               	movlb	0	; () banked
  2212  001404  4BAC               	infsnz	eval_message@tmp_slot& (0+255),f,b
  2213  001406  2BAD               	incf	(eval_message@tmp_slot+1)& (0+255),f,b
  2214  001408                     
  2215                           ; BSR set to: 0
  2216                           ;main.c: 408:                 disable_rxtx();
  2217  001408  ECAF  F01A         	call	_disable_rxtx	;wreg free
  2218  00140C                     
  2219                           ;main.c: 409:                 buf_push('$', OUTBUF);
  2220  00140C  0E01               	movlw	1
  2221  00140E  6E1D               	movwf	buf_push@buf^0,c
  2222  001410  0E24               	movlw	36
  2223  001412  EC41  F019         	call	_buf_push
  2224  001416                     
  2225                           ;main.c: 410:                 buf_push('S', OUTBUF);
  2226  001416  0E01               	movlw	1
  2227  001418  6E1D               	movwf	buf_push@buf^0,c
  2228  00141A  0E53               	movlw	83
  2229  00141C  EC41  F019         	call	_buf_push
  2230  001420                     
  2231                           ;main.c: 411:                 buf_push('P', OUTBUF);
  2232  001420  0E01               	movlw	1
  2233  001422  6E1D               	movwf	buf_push@buf^0,c
  2234  001424  0E50               	movlw	80
  2235  001426  EC41  F019         	call	_buf_push
  2236  00142A                     
  2237                           ;main.c: 412:                 buf_push('C', OUTBUF);
  2238  00142A  0E01               	movlw	1
  2239  00142C  6E1D               	movwf	buf_push@buf^0,c
  2240  00142E  0E43               	movlw	67
  2241  001430  EC41  F019         	call	_buf_push
  2242  001434                     
  2243                           ;main.c: 413:                 buf_push((temp_id / 100) % 10 + '0', OUTBUF);
  2244  001434  0E01               	movlw	1
  2245  001436  6E1D               	movwf	buf_push@buf^0,c
  2246  001438  0E00               	movlw	0
  2247  00143A  6E12               	movwf	(___awdiv@divisor+1)^0,c
  2248  00143C  0E64               	movlw	100
  2249  00143E  6E11               	movwf	___awdiv@divisor^0,c
  2250  001440  C038  F00F         	movff	_temp_id,___awdiv@dividend
  2251  001444  C039  F010         	movff	_temp_id+1,___awdiv@dividend+1
  2252  001448  EC90  F016         	call	___awdiv	;wreg free
  2253  00144C  C00F  F017         	movff	?___awdiv,___awmod@dividend
  2254  001450  C010  F018         	movff	?___awdiv+1,___awmod@dividend+1
  2255  001454  0E00               	movlw	0
  2256  001456  6E1A               	movwf	(___awmod@divisor+1)^0,c
  2257  001458  0E0A               	movlw	10
  2258  00145A  6E19               	movwf	___awmod@divisor^0,c
  2259  00145C  ECF2  F016         	call	___awmod	;wreg free
  2260  001460  5017               	movf	?___awmod^0,w,c
  2261  001462  0F30               	addlw	48
  2262  001464  EC41  F019         	call	_buf_push
  2263  001468                     
  2264                           ;main.c: 414:                 buf_push((temp_id / 10) % 10 + '0', OUTBUF);
  2265  001468  0E01               	movlw	1
  2266  00146A  6E1D               	movwf	buf_push@buf^0,c
  2267  00146C  0E00               	movlw	0
  2268  00146E  6E12               	movwf	(___awdiv@divisor+1)^0,c
  2269  001470  0E0A               	movlw	10
  2270  001472  6E11               	movwf	___awdiv@divisor^0,c
  2271  001474  C038  F00F         	movff	_temp_id,___awdiv@dividend
  2272  001478  C039  F010         	movff	_temp_id+1,___awdiv@dividend+1
  2273  00147C  EC90  F016         	call	___awdiv	;wreg free
  2274  001480  C00F  F017         	movff	?___awdiv,___awmod@dividend
  2275  001484  C010  F018         	movff	?___awdiv+1,___awmod@dividend+1
  2276  001488  0E00               	movlw	0
  2277  00148A  6E1A               	movwf	(___awmod@divisor+1)^0,c
  2278  00148C  0E0A               	movlw	10
  2279  00148E  6E19               	movwf	___awmod@divisor^0,c
  2280  001490  ECF2  F016         	call	___awmod	;wreg free
  2281  001494  5017               	movf	?___awmod^0,w,c
  2282  001496  0F30               	addlw	48
  2283  001498  EC41  F019         	call	_buf_push
  2284  00149C                     
  2285                           ;main.c: 415:                 buf_push((temp_id % 10) + '0', OUTBUF);
  2286  00149C  0E01               	movlw	1
  2287  00149E  6E1D               	movwf	buf_push@buf^0,c
  2288  0014A0  C038  F017         	movff	_temp_id,___awmod@dividend
  2289  0014A4  C039  F018         	movff	_temp_id+1,___awmod@dividend+1
  2290  0014A8  0E00               	movlw	0
  2291  0014AA  6E1A               	movwf	(___awmod@divisor+1)^0,c
  2292  0014AC  0E0A               	movlw	10
  2293  0014AE  6E19               	movwf	___awmod@divisor^0,c
  2294  0014B0  ECF2  F016         	call	___awmod	;wreg free
  2295  0014B4  5017               	movf	?___awmod^0,w,c
  2296  0014B6  0F30               	addlw	48
  2297  0014B8  EC41  F019         	call	_buf_push
  2298  0014BC                     
  2299                           ;main.c: 416:                 buf_push(tmp_lvl, OUTBUF);
  2300  0014BC  0E01               	movlw	1
  2301  0014BE  6E1D               	movwf	buf_push@buf^0,c
  2302  0014C0  0100               	movlb	0	; () banked
  2303  0014C2  51AB               	movf	eval_message@tmp_lvl& (0+255),w,b
  2304  0014C4  EC41  F019         	call	_buf_push
  2305  0014C8                     
  2306                           ;main.c: 417:                 buf_push((tmp_slot / 10) + '0', OUTBUF);
  2307  0014C8  0E01               	movlw	1
  2308  0014CA  6E1D               	movwf	buf_push@buf^0,c
  2309  0014CC  C0AC  F00F         	movff	eval_message@tmp_slot,___awdiv@dividend
  2310  0014D0  C0AD  F010         	movff	eval_message@tmp_slot+1,___awdiv@dividend+1
  2311  0014D4  0E00               	movlw	0
  2312  0014D6  6E12               	movwf	(___awdiv@divisor+1)^0,c
  2313  0014D8  0E0A               	movlw	10
  2314  0014DA  6E11               	movwf	___awdiv@divisor^0,c
  2315  0014DC  EC90  F016         	call	___awdiv	;wreg free
  2316  0014E0  500F               	movf	?___awdiv^0,w,c
  2317  0014E2  0F30               	addlw	48
  2318  0014E4  EC41  F019         	call	_buf_push
  2319  0014E8                     
  2320                           ;main.c: 418:                 buf_push((tmp_slot % 10) + '0', OUTBUF);
  2321  0014E8  0E01               	movlw	1
  2322  0014EA  6E1D               	movwf	buf_push@buf^0,c
  2323  0014EC  C0AC  F017         	movff	eval_message@tmp_slot,___awmod@dividend
  2324  0014F0  C0AD  F018         	movff	eval_message@tmp_slot+1,___awmod@dividend+1
  2325  0014F4  0E00               	movlw	0
  2326  0014F6  6E1A               	movwf	(___awmod@divisor+1)^0,c
  2327  0014F8  0E0A               	movlw	10
  2328  0014FA  6E19               	movwf	___awmod@divisor^0,c
  2329  0014FC  ECF2  F016         	call	___awmod	;wreg free
  2330  001500  5017               	movf	?___awmod^0,w,c
  2331  001502  0F30               	addlw	48
  2332  001504  EC41  F019         	call	_buf_push
  2333  001508                     
  2334                           ;main.c: 419:                 buf_push('#', OUTBUF);
  2335  001508  0E01               	movlw	1
  2336  00150A  6E1D               	movwf	buf_push@buf^0,c
  2337  00150C  0E23               	movlw	35
  2338  00150E  EC41  F019         	call	_buf_push
  2339  001512                     
  2340                           ;main.c: 420:                 enable_rxtx();
  2341  001512  ECAC  F01A         	call	_enable_rxtx	;wreg free
  2342  001516  EFB9  F009         	goto	l3094
  2343  00151A                     l3138:
  2344  00151A  C038  F00F         	movff	_temp_id,enqueue@car_id
  2345  00151E  C039  F010         	movff	_temp_id+1,enqueue@car_id+1
  2346  001522  EC65  F01A         	call	_enqueue	;wreg free
  2347  001526  EFA2  F010         	goto	l228
  2348  00152A                     l3140:
  2349  00152A  0E8C               	movlw	low _buffer
  2350  00152C  6E0F               	movwf	is_same@a^0,c
  2351  00152E  0E00               	movlw	high _buffer
  2352  001530  6E10               	movwf	(is_same@a+1)^0,c
  2353  001532  0E17               	movlw	low STR_7
  2354  001534  6E11               	movwf	is_same@b^0,c
  2355  001536  0E10               	movlw	high STR_7
  2356  001538  6E12               	movwf	(is_same@b+1)^0,c
  2357  00153A  0E00               	movlw	0
  2358  00153C  6E14               	movwf	(is_same@n+1)^0,c
  2359  00153E  0E03               	movlw	3
  2360  001540  6E13               	movwf	is_same@n^0,c
  2361  001542  EC03  F019         	call	_is_same	;wreg free
  2362  001546  500F               	movf	?_is_same^0,w,c
  2363  001548  1010               	iorwf	(?_is_same+1)^0,w,c
  2364  00154A  B4D8               	btfsc	status,2,c
  2365  00154C  EFAA  F00A         	goto	u2951
  2366  001550  EFAC  F00A         	goto	u2950
  2367  001554                     u2951:
  2368  001554  EF7D  F00E         	goto	l3262
  2369  001558                     u2950:
  2370  001558  5046               	movf	_run_flag^0,w,c
  2371  00155A  1047               	iorwf	(_run_flag+1)^0,w,c
  2372  00155C  B4D8               	btfsc	status,2,c
  2373  00155E  EFB3  F00A         	goto	u2961
  2374  001562  EFB5  F00A         	goto	u2960
  2375  001566                     u2961:
  2376  001566  EF7D  F00E         	goto	l3262
  2377  00156A                     u2960:
  2378  00156A                     
  2379                           ;main.c: 428:         int id = (buffer[3] - '0') * 100 + (buffer[4] - '0') * 10 + (buffe
      +                          r[5] - '0');
  2380  00156A  0100               	movlb	0	; () banked
  2381  00156C  518F               	movf	(_buffer+3)& (0+255),w,b
  2382  00156E  0D64               	mullw	100
  2383  001570  CFF3 F025          	movff	prodl,??_eval_message
  2384  001574  CFF4 F026          	movff	prodh,??_eval_message+1
  2385  001578  5190               	movf	(_buffer+4)& (0+255),w,b
  2386  00157A  0D0A               	mullw	10
  2387  00157C  50F3               	movf	243,w,c
  2388  00157E  2625               	addwf	??_eval_message^0,f,c
  2389  001580  50F4               	movf	244,w,c
  2390  001582  2226               	addwfc	(??_eval_message+1)^0,f,c
  2391  001584  5191               	movf	(_buffer+5)& (0+255),w,b
  2392  001586  2625               	addwf	??_eval_message^0,f,c
  2393  001588  0E00               	movlw	0
  2394  00158A  2226               	addwfc	(??_eval_message+1)^0,f,c
  2395  00158C  0E30               	movlw	48
  2396  00158E  2425               	addwf	??_eval_message^0,w,c
  2397  001590  6FA9               	movwf	eval_message@id_685& (0+255),b
  2398  001592  0EEB               	movlw	235
  2399  001594  2026               	addwfc	(??_eval_message+1)^0,w,c
  2400  001596  6FAA               	movwf	(eval_message@id_685+1)& (0+255),b
  2401  001598                     
  2402                           ; BSR set to: 0
  2403                           ;main.c: 430:         if(buffer[3] < '0' || buffer[3] > '9') return;
  2404  001598  0E2F               	movlw	47
  2405  00159A  658F               	cpfsgt	(_buffer+3)& (0+255),b
  2406  00159C  EFD2  F00A         	goto	u2971
  2407  0015A0  EFD4  F00A         	goto	u2970
  2408  0015A4                     u2971:
  2409  0015A4  EFA2  F010         	goto	l228
  2410  0015A8                     u2970:
  2411  0015A8                     
  2412                           ; BSR set to: 0
  2413  0015A8  0E39               	movlw	57
  2414  0015AA  658F               	cpfsgt	(_buffer+3)& (0+255),b
  2415  0015AC  EFDA  F00A         	goto	u2981
  2416  0015B0  EFDC  F00A         	goto	u2980
  2417  0015B4                     u2981:
  2418  0015B4  EFDE  F00A         	goto	l3150
  2419  0015B8                     u2980:
  2420  0015B8  EFA2  F010         	goto	l228
  2421  0015BC                     l3150:
  2422                           
  2423                           ; BSR set to: 0
  2424                           ;main.c: 431:         if(buffer[4] < '0' || buffer[4] > '9') return;
  2425  0015BC  0E2F               	movlw	47
  2426  0015BE  6590               	cpfsgt	(_buffer+4)& (0+255),b
  2427  0015C0  EFE4  F00A         	goto	u2991
  2428  0015C4  EFE6  F00A         	goto	u2990
  2429  0015C8                     u2991:
  2430  0015C8  EFA2  F010         	goto	l228
  2431  0015CC                     u2990:
  2432  0015CC                     
  2433                           ; BSR set to: 0
  2434  0015CC  0E39               	movlw	57
  2435  0015CE  6590               	cpfsgt	(_buffer+4)& (0+255),b
  2436  0015D0  EFEC  F00A         	goto	u3001
  2437  0015D4  EFEE  F00A         	goto	u3000
  2438  0015D8                     u3001:
  2439  0015D8  EFF0  F00A         	goto	l3154
  2440  0015DC                     u3000:
  2441  0015DC  EFA2  F010         	goto	l228
  2442  0015E0                     l3154:
  2443                           
  2444                           ; BSR set to: 0
  2445                           ;main.c: 432:         if(buffer[5] < '0' || buffer[5] > '9') return;
  2446  0015E0  0E2F               	movlw	47
  2447  0015E2  6591               	cpfsgt	(_buffer+5)& (0+255),b
  2448  0015E4  EFF6  F00A         	goto	u3011
  2449  0015E8  EFF8  F00A         	goto	u3010
  2450  0015EC                     u3011:
  2451  0015EC  EFA2  F010         	goto	l228
  2452  0015F0                     u3010:
  2453  0015F0                     
  2454                           ; BSR set to: 0
  2455  0015F0  0E39               	movlw	57
  2456  0015F2  6591               	cpfsgt	(_buffer+5)& (0+255),b
  2457  0015F4  EFFE  F00A         	goto	u3021
  2458  0015F8  EF00  F00B         	goto	u3020
  2459  0015FC                     u3021:
  2460  0015FC  EF02  F00B         	goto	l3158
  2461  001600                     u3020:
  2462  001600  EFA2  F010         	goto	l228
  2463  001604                     l3158:
  2464                           
  2465                           ; BSR set to: 0
  2466                           ;main.c: 433:         int tmp_slot;;main.c: 434:         char tmp_lvl;;main.c: 435:     
      +                              find_parked(id, &tmp_lvl, &tmp_slot);
  2467  001604  C0A9  F015         	movff	eval_message@id_685,find_parked@id
  2468  001608  C0AA  F016         	movff	eval_message@id_685+1,find_parked@id+1
  2469  00160C  0EB0               	movlw	low eval_message@tmp_lvl_687
  2470  00160E  6E17               	movwf	find_parked@level^0,c
  2471  001610  0E00               	movlw	high eval_message@tmp_lvl_687
  2472  001612  6E18               	movwf	(find_parked@level+1)^0,c
  2473  001614  0EAE               	movlw	low eval_message@tmp_slot_686
  2474  001616  6E19               	movwf	find_parked@slot^0,c
  2475  001618  0E00               	movlw	high eval_message@tmp_slot_686
  2476  00161A  6E1A               	movwf	(find_parked@slot+1)^0,c
  2477  00161C  ECF6  F013         	call	_find_parked	;wreg free
  2478  001620                     
  2479                           ;main.c: 437:         if (park.floors[tmp_lvl - 'A'].slots[tmp_slot].subscribe == 1) {
  2480  001620  C0AE  F025         	movff	eval_message@tmp_slot_686,??_eval_message
  2481  001624  C0AF  F026         	movff	eval_message@tmp_slot_686+1,??_eval_message+1
  2482  001628  90D8               	bcf	status,0,c
  2483  00162A  3625               	rlcf	??_eval_message^0,f,c
  2484  00162C  3626               	rlcf	(??_eval_message+1)^0,f,c
  2485  00162E  90D8               	bcf	status,0,c
  2486  001630  3625               	rlcf	??_eval_message^0,f,c
  2487  001632  3626               	rlcf	(??_eval_message+1)^0,f,c
  2488  001634  90D8               	bcf	status,0,c
  2489  001636  3625               	rlcf	??_eval_message^0,f,c
  2490  001638  3626               	rlcf	(??_eval_message+1)^0,f,c
  2491  00163A  0100               	movlb	0	; () banked
  2492  00163C  51B0               	movf	eval_message@tmp_lvl_687& (0+255),w,b
  2493  00163E  0D53               	mullw	83
  2494  001640  0EF2               	movlw	242
  2495  001642  6E27               	movwf	(??_eval_message+2)^0,c
  2496  001644  0EEA               	movlw	234
  2497  001646  6E28               	movwf	(??_eval_message+3)^0,c
  2498  001648  0E00               	movlw	low _park
  2499  00164A  6E29               	movwf	(??_eval_message+4)^0,c
  2500  00164C  0E03               	movlw	high _park
  2501  00164E  6E2A               	movwf	(??_eval_message+5)^0,c
  2502  001650  5027               	movf	(??_eval_message+2)^0,w,c
  2503  001652  2629               	addwf	(??_eval_message+4)^0,f,c
  2504  001654  5028               	movf	(??_eval_message+3)^0,w,c
  2505  001656  222A               	addwfc	(??_eval_message+5)^0,f,c
  2506  001658  50F3               	movf	243,w,c
  2507  00165A  2629               	addwf	(??_eval_message+4)^0,f,c
  2508  00165C  50F4               	movf	244,w,c
  2509  00165E  222A               	addwfc	(??_eval_message+5)^0,f,c
  2510  001660  5025               	movf	??_eval_message^0,w,c
  2511  001662  2429               	addwf	(??_eval_message+4)^0,w,c
  2512  001664  6ED9               	movwf	fsr2l,c
  2513  001666  5026               	movf	(??_eval_message+1)^0,w,c
  2514  001668  202A               	addwfc	(??_eval_message+5)^0,w,c
  2515  00166A  6EDA               	movwf	fsr2h,c
  2516  00166C  04DE               	decf	postinc2,w,c
  2517  00166E  10DE               	iorwf	postinc2,w,c
  2518  001670  A4D8               	btfss	status,2,c
  2519  001672  EF3D  F00B         	goto	u3031
  2520  001676  EF3F  F00B         	goto	u3030
  2521  00167A                     u3031:
  2522  00167A  EF0F  F00C         	goto	l3188
  2523  00167E                     u3030:
  2524  00167E                     
  2525                           ; BSR set to: 0
  2526                           ;main.c: 438:             park.floors[tmp_lvl - 'A'].slots[tmp_slot].entry_time = 0;
  2527  00167E  C0AE  F025         	movff	eval_message@tmp_slot_686,??_eval_message
  2528  001682  C0AF  F026         	movff	eval_message@tmp_slot_686+1,??_eval_message+1
  2529  001686  90D8               	bcf	status,0,c
  2530  001688  3625               	rlcf	??_eval_message^0,f,c
  2531  00168A  3626               	rlcf	(??_eval_message+1)^0,f,c
  2532  00168C  90D8               	bcf	status,0,c
  2533  00168E  3625               	rlcf	??_eval_message^0,f,c
  2534  001690  3626               	rlcf	(??_eval_message+1)^0,f,c
  2535  001692  90D8               	bcf	status,0,c
  2536  001694  3625               	rlcf	??_eval_message^0,f,c
  2537  001696  3626               	rlcf	(??_eval_message+1)^0,f,c
  2538  001698  51B0               	movf	eval_message@tmp_lvl_687& (0+255),w,b
  2539  00169A  0D53               	mullw	83
  2540  00169C  0EF4               	movlw	244
  2541  00169E  6E27               	movwf	(??_eval_message+2)^0,c
  2542  0016A0  0EEA               	movlw	234
  2543  0016A2  6E28               	movwf	(??_eval_message+3)^0,c
  2544  0016A4  0E00               	movlw	low _park
  2545  0016A6  6E29               	movwf	(??_eval_message+4)^0,c
  2546  0016A8  0E03               	movlw	high _park
  2547  0016AA  6E2A               	movwf	(??_eval_message+5)^0,c
  2548  0016AC  5027               	movf	(??_eval_message+2)^0,w,c
  2549  0016AE  2629               	addwf	(??_eval_message+4)^0,f,c
  2550  0016B0  5028               	movf	(??_eval_message+3)^0,w,c
  2551  0016B2  222A               	addwfc	(??_eval_message+5)^0,f,c
  2552  0016B4  50F3               	movf	243,w,c
  2553  0016B6  2629               	addwf	(??_eval_message+4)^0,f,c
  2554  0016B8  50F4               	movf	244,w,c
  2555  0016BA  222A               	addwfc	(??_eval_message+5)^0,f,c
  2556  0016BC  5025               	movf	??_eval_message^0,w,c
  2557  0016BE  2429               	addwf	(??_eval_message+4)^0,w,c
  2558  0016C0  6ED9               	movwf	fsr2l,c
  2559  0016C2  5026               	movf	(??_eval_message+1)^0,w,c
  2560  0016C4  202A               	addwfc	(??_eval_message+5)^0,w,c
  2561  0016C6  6EDA               	movwf	fsr2h,c
  2562  0016C8  0E00               	movlw	0
  2563  0016CA  6EDE               	movwf	postinc2,c
  2564  0016CC  0E00               	movlw	0
  2565  0016CE  6EDD               	movwf	postdec2,c
  2566                           
  2567                           ;main.c: 439:             park.floors[tmp_lvl - 'A'].slots[tmp_slot].occupied = 0;
  2568  0016D0  C0AE  F025         	movff	eval_message@tmp_slot_686,??_eval_message
  2569  0016D4  C0AF  F026         	movff	eval_message@tmp_slot_686+1,??_eval_message+1
  2570  0016D8  90D8               	bcf	status,0,c
  2571  0016DA  3625               	rlcf	??_eval_message^0,f,c
  2572  0016DC  3626               	rlcf	(??_eval_message+1)^0,f,c
  2573  0016DE  90D8               	bcf	status,0,c
  2574  0016E0  3625               	rlcf	??_eval_message^0,f,c
  2575  0016E2  3626               	rlcf	(??_eval_message+1)^0,f,c
  2576  0016E4  90D8               	bcf	status,0,c
  2577  0016E6  3625               	rlcf	??_eval_message^0,f,c
  2578  0016E8  3626               	rlcf	(??_eval_message+1)^0,f,c
  2579  0016EA  51B0               	movf	eval_message@tmp_lvl_687& (0+255),w,b
  2580  0016EC  0D53               	mullw	83
  2581  0016EE  0EF6               	movlw	246
  2582  0016F0  6E27               	movwf	(??_eval_message+2)^0,c
  2583  0016F2  0EEA               	movlw	234
  2584  0016F4  6E28               	movwf	(??_eval_message+3)^0,c
  2585  0016F6  0E00               	movlw	low _park
  2586  0016F8  6E29               	movwf	(??_eval_message+4)^0,c
  2587  0016FA  0E03               	movlw	high _park
  2588  0016FC  6E2A               	movwf	(??_eval_message+5)^0,c
  2589  0016FE  5027               	movf	(??_eval_message+2)^0,w,c
  2590  001700  2629               	addwf	(??_eval_message+4)^0,f,c
  2591  001702  5028               	movf	(??_eval_message+3)^0,w,c
  2592  001704  222A               	addwfc	(??_eval_message+5)^0,f,c
  2593  001706  50F3               	movf	243,w,c
  2594  001708  2629               	addwf	(??_eval_message+4)^0,f,c
  2595  00170A  50F4               	movf	244,w,c
  2596  00170C  222A               	addwfc	(??_eval_message+5)^0,f,c
  2597  00170E  5025               	movf	??_eval_message^0,w,c
  2598  001710  2429               	addwf	(??_eval_message+4)^0,w,c
  2599  001712  6ED9               	movwf	fsr2l,c
  2600  001714  5026               	movf	(??_eval_message+1)^0,w,c
  2601  001716  202A               	addwfc	(??_eval_message+5)^0,w,c
  2602  001718  6EDA               	movwf	fsr2h,c
  2603  00171A  0E00               	movlw	0
  2604  00171C  6EDE               	movwf	postinc2,c
  2605  00171E  0E00               	movlw	0
  2606  001720  6EDD               	movwf	postdec2,c
  2607                           
  2608                           ;main.c: 440:             park.floors[tmp_lvl - 'A'].available_f++;
  2609  001722  51B0               	movf	eval_message@tmp_lvl_687& (0+255),w,b
  2610  001724  0D53               	mullw	83
  2611  001726  0E40               	movlw	low (_park+60224)
  2612  001728  24F3               	addwf	243,w,c
  2613  00172A  6ED9               	movwf	fsr2l,c
  2614  00172C  0EEE               	movlw	high (_park+60224)
  2615  00172E  20F4               	addwfc	prodh,w,c
  2616  001730  6EDA               	movwf	fsr2h,c
  2617  001732  2ADE               	incf	postinc2,f,c
  2618  001734  0E00               	movlw	0
  2619  001736  22DD               	addwfc	postdec2,f,c
  2620  001738                     
  2621                           ; BSR set to: 0
  2622                           ;main.c: 441:             park.available++;
  2623  001738  EE23  F000         	lfsr	2,_park
  2624  00173C  2ADE               	incf	postinc2,f,c
  2625  00173E  0E00               	movlw	0
  2626  001740  22DD               	addwfc	postdec2,f,c
  2627  001742                     
  2628                           ; BSR set to: 0
  2629                           ;main.c: 444:             buf_push('$', OUTBUF);
  2630  001742  0E01               	movlw	1
  2631  001744  6E1D               	movwf	buf_push@buf^0,c
  2632  001746  0E24               	movlw	36
  2633  001748  EC41  F019         	call	_buf_push
  2634  00174C                     
  2635                           ;main.c: 445:             buf_push('F', OUTBUF);
  2636  00174C  0E01               	movlw	1
  2637  00174E  6E1D               	movwf	buf_push@buf^0,c
  2638  001750  0E46               	movlw	70
  2639  001752  EC41  F019         	call	_buf_push
  2640  001756                     
  2641                           ;main.c: 446:             buf_push('E', OUTBUF);
  2642  001756  0E01               	movlw	1
  2643  001758  6E1D               	movwf	buf_push@buf^0,c
  2644  00175A  0E45               	movlw	69
  2645  00175C  EC41  F019         	call	_buf_push
  2646  001760                     
  2647                           ;main.c: 447:             buf_push('E', OUTBUF);
  2648  001760  0E01               	movlw	1
  2649  001762  6E1D               	movwf	buf_push@buf^0,c
  2650  001764  0E45               	movlw	69
  2651  001766  EC41  F019         	call	_buf_push
  2652  00176A                     
  2653                           ;main.c: 448:             buf_push((id / 100) % 10 + '0', OUTBUF);
  2654  00176A  0E01               	movlw	1
  2655  00176C  6E1D               	movwf	buf_push@buf^0,c
  2656  00176E  0E00               	movlw	0
  2657  001770  6E12               	movwf	(___awdiv@divisor+1)^0,c
  2658  001772  0E64               	movlw	100
  2659  001774  6E11               	movwf	___awdiv@divisor^0,c
  2660  001776  C0A9  F00F         	movff	eval_message@id_685,___awdiv@dividend
  2661  00177A  C0AA  F010         	movff	eval_message@id_685+1,___awdiv@dividend+1
  2662  00177E  EC90  F016         	call	___awdiv	;wreg free
  2663  001782  C00F  F017         	movff	?___awdiv,___awmod@dividend
  2664  001786  C010  F018         	movff	?___awdiv+1,___awmod@dividend+1
  2665  00178A  0E00               	movlw	0
  2666  00178C  6E1A               	movwf	(___awmod@divisor+1)^0,c
  2667  00178E  0E0A               	movlw	10
  2668  001790  6E19               	movwf	___awmod@divisor^0,c
  2669  001792  ECF2  F016         	call	___awmod	;wreg free
  2670  001796  5017               	movf	?___awmod^0,w,c
  2671  001798  0F30               	addlw	48
  2672  00179A  EC41  F019         	call	_buf_push
  2673  00179E                     
  2674                           ;main.c: 449:             buf_push((id / 10) % 10 + '0', OUTBUF);
  2675  00179E  0E01               	movlw	1
  2676  0017A0  6E1D               	movwf	buf_push@buf^0,c
  2677  0017A2  0E00               	movlw	0
  2678  0017A4  6E12               	movwf	(___awdiv@divisor+1)^0,c
  2679  0017A6  0E0A               	movlw	10
  2680  0017A8  6E11               	movwf	___awdiv@divisor^0,c
  2681  0017AA  C0A9  F00F         	movff	eval_message@id_685,___awdiv@dividend
  2682  0017AE  C0AA  F010         	movff	eval_message@id_685+1,___awdiv@dividend+1
  2683  0017B2  EC90  F016         	call	___awdiv	;wreg free
  2684  0017B6  C00F  F017         	movff	?___awdiv,___awmod@dividend
  2685  0017BA  C010  F018         	movff	?___awdiv+1,___awmod@dividend+1
  2686  0017BE  0E00               	movlw	0
  2687  0017C0  6E1A               	movwf	(___awmod@divisor+1)^0,c
  2688  0017C2  0E0A               	movlw	10
  2689  0017C4  6E19               	movwf	___awmod@divisor^0,c
  2690  0017C6  ECF2  F016         	call	___awmod	;wreg free
  2691  0017CA  5017               	movf	?___awmod^0,w,c
  2692  0017CC  0F30               	addlw	48
  2693  0017CE  EC41  F019         	call	_buf_push
  2694  0017D2                     
  2695                           ;main.c: 450:             buf_push((id % 10) + '0', OUTBUF);
  2696  0017D2  0E01               	movlw	1
  2697  0017D4  6E1D               	movwf	buf_push@buf^0,c
  2698  0017D6  C0A9  F017         	movff	eval_message@id_685,___awmod@dividend
  2699  0017DA  C0AA  F018         	movff	eval_message@id_685+1,___awmod@dividend+1
  2700  0017DE  0E00               	movlw	0
  2701  0017E0  6E1A               	movwf	(___awmod@divisor+1)^0,c
  2702  0017E2  0E0A               	movlw	10
  2703  0017E4  6E19               	movwf	___awmod@divisor^0,c
  2704  0017E6  ECF2  F016         	call	___awmod	;wreg free
  2705  0017EA  5017               	movf	?___awmod^0,w,c
  2706  0017EC  0F30               	addlw	48
  2707  0017EE  EC41  F019         	call	_buf_push
  2708  0017F2                     
  2709                           ;main.c: 451:             buf_push('0', OUTBUF);
  2710  0017F2  0E01               	movlw	1
  2711  0017F4  6E1D               	movwf	buf_push@buf^0,c
  2712  0017F6  0E30               	movlw	48
  2713  0017F8  EC41  F019         	call	_buf_push
  2714  0017FC                     
  2715                           ;main.c: 452:             buf_push('0', OUTBUF);
  2716  0017FC  0E01               	movlw	1
  2717  0017FE  6E1D               	movwf	buf_push@buf^0,c
  2718  001800  0E30               	movlw	48
  2719  001802  EC41  F019         	call	_buf_push
  2720  001806                     
  2721                           ;main.c: 453:             buf_push('0', OUTBUF);
  2722  001806  0E01               	movlw	1
  2723  001808  6E1D               	movwf	buf_push@buf^0,c
  2724  00180A  0E30               	movlw	48
  2725  00180C  EC41  F019         	call	_buf_push
  2726  001810                     
  2727                           ;main.c: 454:             buf_push('#', OUTBUF);
  2728  001810  0E01               	movlw	1
  2729  001812  6E1D               	movwf	buf_push@buf^0,c
  2730  001814  0E23               	movlw	35
  2731  001816  EC41  F019         	call	_buf_push
  2732                           
  2733                           ;main.c: 455:         } else {
  2734  00181A  EFB9  F009         	goto	l3094
  2735  00181E                     l3188:
  2736                           
  2737                           ; BSR set to: 0
  2738                           ;main.c: 457:             int fee = ( (time_counter - park.floors[tmp_lvl - 'A'].slots[t
      +                          mp_slot].entry_time) / 250 ) + 1;
  2739  00181E  C0AE  F025         	movff	eval_message@tmp_slot_686,??_eval_message
  2740  001822  C0AF  F026         	movff	eval_message@tmp_slot_686+1,??_eval_message+1
  2741  001826  90D8               	bcf	status,0,c
  2742  001828  3625               	rlcf	??_eval_message^0,f,c
  2743  00182A  3626               	rlcf	(??_eval_message+1)^0,f,c
  2744  00182C  90D8               	bcf	status,0,c
  2745  00182E  3625               	rlcf	??_eval_message^0,f,c
  2746  001830  3626               	rlcf	(??_eval_message+1)^0,f,c
  2747  001832  90D8               	bcf	status,0,c
  2748  001834  3625               	rlcf	??_eval_message^0,f,c
  2749  001836  3626               	rlcf	(??_eval_message+1)^0,f,c
  2750  001838  51B0               	movf	eval_message@tmp_lvl_687& (0+255),w,b
  2751  00183A  0D53               	mullw	83
  2752  00183C  0EF4               	movlw	244
  2753  00183E  6E27               	movwf	(??_eval_message+2)^0,c
  2754  001840  0EEA               	movlw	234
  2755  001842  6E28               	movwf	(??_eval_message+3)^0,c
  2756  001844  0E00               	movlw	low _park
  2757  001846  6E29               	movwf	(??_eval_message+4)^0,c
  2758  001848  0E03               	movlw	high _park
  2759  00184A  6E2A               	movwf	(??_eval_message+5)^0,c
  2760  00184C  5027               	movf	(??_eval_message+2)^0,w,c
  2761  00184E  2629               	addwf	(??_eval_message+4)^0,f,c
  2762  001850  5028               	movf	(??_eval_message+3)^0,w,c
  2763  001852  222A               	addwfc	(??_eval_message+5)^0,f,c
  2764  001854  50F3               	movf	243,w,c
  2765  001856  2629               	addwf	(??_eval_message+4)^0,f,c
  2766  001858  50F4               	movf	244,w,c
  2767  00185A  222A               	addwfc	(??_eval_message+5)^0,f,c
  2768  00185C  5025               	movf	??_eval_message^0,w,c
  2769  00185E  2429               	addwf	(??_eval_message+4)^0,w,c
  2770  001860  6ED9               	movwf	fsr2l,c
  2771  001862  5026               	movf	(??_eval_message+1)^0,w,c
  2772  001864  202A               	addwfc	(??_eval_message+5)^0,w,c
  2773  001866  6EDA               	movwf	fsr2h,c
  2774  001868  CFDE F02B          	movff	postinc2,??_eval_message+6
  2775  00186C  CFDD F02C          	movff	postdec2,??_eval_message+7
  2776  001870  502B               	movf	(??_eval_message+6)^0,w,c
  2777  001872  5C4B               	subwf	_time_counter^0,w,c
  2778  001874  6E0F               	movwf	___lwdiv@dividend^0,c
  2779  001876  502C               	movf	(??_eval_message+7)^0,w,c
  2780  001878  584C               	subwfb	(_time_counter+1)^0,w,c
  2781  00187A  6E10               	movwf	(___lwdiv@dividend+1)^0,c
  2782  00187C  0E00               	movlw	0
  2783  00187E  6E12               	movwf	(___lwdiv@divisor+1)^0,c
  2784  001880  0EFA               	movlw	250
  2785  001882  6E11               	movwf	___lwdiv@divisor^0,c
  2786  001884  ECB7  F019         	call	___lwdiv	;wreg free
  2787  001888  0E01               	movlw	1
  2788  00188A  240F               	addwf	?___lwdiv^0,w,c
  2789  00188C  0100               	movlb	0	; () banked
  2790  00188E  6FA0               	movwf	eval_message@fee& (0+255),b
  2791  001890  0E00               	movlw	0
  2792  001892  2010               	addwfc	(?___lwdiv+1)^0,w,c
  2793  001894  6FA1               	movwf	(eval_message@fee+1)& (0+255),b
  2794  001896                     
  2795                           ; BSR set to: 0
  2796                           ;main.c: 458:             total_score += fee;
  2797  001896  51A0               	movf	eval_message@fee& (0+255),w,b
  2798  001898  278A               	addwf	_total_score& (0+255),f,b
  2799  00189A  51A1               	movf	(eval_message@fee+1)& (0+255),w,b
  2800  00189C  238B               	addwfc	(_total_score+1)& (0+255),f,b
  2801  00189E                     
  2802                           ; BSR set to: 0
  2803                           ;main.c: 459:             park.floors[tmp_lvl - 'A'].slots[tmp_slot].entry_time = 0;
  2804  00189E  C0AE  F025         	movff	eval_message@tmp_slot_686,??_eval_message
  2805  0018A2  C0AF  F026         	movff	eval_message@tmp_slot_686+1,??_eval_message+1
  2806  0018A6  90D8               	bcf	status,0,c
  2807  0018A8  3625               	rlcf	??_eval_message^0,f,c
  2808  0018AA  3626               	rlcf	(??_eval_message+1)^0,f,c
  2809  0018AC  90D8               	bcf	status,0,c
  2810  0018AE  3625               	rlcf	??_eval_message^0,f,c
  2811  0018B0  3626               	rlcf	(??_eval_message+1)^0,f,c
  2812  0018B2  90D8               	bcf	status,0,c
  2813  0018B4  3625               	rlcf	??_eval_message^0,f,c
  2814  0018B6  3626               	rlcf	(??_eval_message+1)^0,f,c
  2815  0018B8  51B0               	movf	eval_message@tmp_lvl_687& (0+255),w,b
  2816  0018BA  0D53               	mullw	83
  2817  0018BC  0EF4               	movlw	244
  2818  0018BE  6E27               	movwf	(??_eval_message+2)^0,c
  2819  0018C0  0EEA               	movlw	234
  2820  0018C2  6E28               	movwf	(??_eval_message+3)^0,c
  2821  0018C4  0E00               	movlw	low _park
  2822  0018C6  6E29               	movwf	(??_eval_message+4)^0,c
  2823  0018C8  0E03               	movlw	high _park
  2824  0018CA  6E2A               	movwf	(??_eval_message+5)^0,c
  2825  0018CC  5027               	movf	(??_eval_message+2)^0,w,c
  2826  0018CE  2629               	addwf	(??_eval_message+4)^0,f,c
  2827  0018D0  5028               	movf	(??_eval_message+3)^0,w,c
  2828  0018D2  222A               	addwfc	(??_eval_message+5)^0,f,c
  2829  0018D4  50F3               	movf	243,w,c
  2830  0018D6  2629               	addwf	(??_eval_message+4)^0,f,c
  2831  0018D8  50F4               	movf	244,w,c
  2832  0018DA  222A               	addwfc	(??_eval_message+5)^0,f,c
  2833  0018DC  5025               	movf	??_eval_message^0,w,c
  2834  0018DE  2429               	addwf	(??_eval_message+4)^0,w,c
  2835  0018E0  6ED9               	movwf	fsr2l,c
  2836  0018E2  5026               	movf	(??_eval_message+1)^0,w,c
  2837  0018E4  202A               	addwfc	(??_eval_message+5)^0,w,c
  2838  0018E6  6EDA               	movwf	fsr2h,c
  2839  0018E8  0E00               	movlw	0
  2840  0018EA  6EDE               	movwf	postinc2,c
  2841  0018EC  0E00               	movlw	0
  2842  0018EE  6EDD               	movwf	postdec2,c
  2843  0018F0                     
  2844                           ; BSR set to: 0
  2845                           ;main.c: 460:             park.floors[tmp_lvl - 'A'].slots[tmp_slot].occupied = 0;
  2846  0018F0  C0AE  F025         	movff	eval_message@tmp_slot_686,??_eval_message
  2847  0018F4  C0AF  F026         	movff	eval_message@tmp_slot_686+1,??_eval_message+1
  2848  0018F8  90D8               	bcf	status,0,c
  2849  0018FA  3625               	rlcf	??_eval_message^0,f,c
  2850  0018FC  3626               	rlcf	(??_eval_message+1)^0,f,c
  2851  0018FE  90D8               	bcf	status,0,c
  2852  001900  3625               	rlcf	??_eval_message^0,f,c
  2853  001902  3626               	rlcf	(??_eval_message+1)^0,f,c
  2854  001904  90D8               	bcf	status,0,c
  2855  001906  3625               	rlcf	??_eval_message^0,f,c
  2856  001908  3626               	rlcf	(??_eval_message+1)^0,f,c
  2857  00190A  51B0               	movf	eval_message@tmp_lvl_687& (0+255),w,b
  2858  00190C  0D53               	mullw	83
  2859  00190E  0EF6               	movlw	246
  2860  001910  6E27               	movwf	(??_eval_message+2)^0,c
  2861  001912  0EEA               	movlw	234
  2862  001914  6E28               	movwf	(??_eval_message+3)^0,c
  2863  001916  0E00               	movlw	low _park
  2864  001918  6E29               	movwf	(??_eval_message+4)^0,c
  2865  00191A  0E03               	movlw	high _park
  2866  00191C  6E2A               	movwf	(??_eval_message+5)^0,c
  2867  00191E  5027               	movf	(??_eval_message+2)^0,w,c
  2868  001920  2629               	addwf	(??_eval_message+4)^0,f,c
  2869  001922  5028               	movf	(??_eval_message+3)^0,w,c
  2870  001924  222A               	addwfc	(??_eval_message+5)^0,f,c
  2871  001926  50F3               	movf	243,w,c
  2872  001928  2629               	addwf	(??_eval_message+4)^0,f,c
  2873  00192A  50F4               	movf	244,w,c
  2874  00192C  222A               	addwfc	(??_eval_message+5)^0,f,c
  2875  00192E  5025               	movf	??_eval_message^0,w,c
  2876  001930  2429               	addwf	(??_eval_message+4)^0,w,c
  2877  001932  6ED9               	movwf	fsr2l,c
  2878  001934  5026               	movf	(??_eval_message+1)^0,w,c
  2879  001936  202A               	addwfc	(??_eval_message+5)^0,w,c
  2880  001938  6EDA               	movwf	fsr2h,c
  2881  00193A  0E00               	movlw	0
  2882  00193C  6EDE               	movwf	postinc2,c
  2883  00193E  0E00               	movlw	0
  2884  001940  6EDD               	movwf	postdec2,c
  2885  001942                     
  2886                           ; BSR set to: 0
  2887                           ;main.c: 461:             park.floors[tmp_lvl - 'A'].available_f++;
  2888  001942  51B0               	movf	eval_message@tmp_lvl_687& (0+255),w,b
  2889  001944  0D53               	mullw	83
  2890  001946  0E40               	movlw	low (_park+60224)
  2891  001948  24F3               	addwf	243,w,c
  2892  00194A  6ED9               	movwf	fsr2l,c
  2893  00194C  0EEE               	movlw	high (_park+60224)
  2894  00194E  20F4               	addwfc	prodh,w,c
  2895  001950  6EDA               	movwf	fsr2h,c
  2896  001952  2ADE               	incf	postinc2,f,c
  2897  001954  0E00               	movlw	0
  2898  001956  22DD               	addwfc	postdec2,f,c
  2899  001958                     
  2900                           ; BSR set to: 0
  2901                           ;main.c: 462:             park.available++;
  2902  001958  EE23  F000         	lfsr	2,_park
  2903  00195C  2ADE               	incf	postinc2,f,c
  2904  00195E  0E00               	movlw	0
  2905  001960  22DD               	addwfc	postdec2,f,c
  2906  001962                     
  2907                           ; BSR set to: 0
  2908                           ;main.c: 464:             buf_push('$', OUTBUF);
  2909  001962  0E01               	movlw	1
  2910  001964  6E1D               	movwf	buf_push@buf^0,c
  2911  001966  0E24               	movlw	36
  2912  001968  EC41  F019         	call	_buf_push
  2913  00196C                     
  2914                           ;main.c: 465:             buf_push('F', OUTBUF);
  2915  00196C  0E01               	movlw	1
  2916  00196E  6E1D               	movwf	buf_push@buf^0,c
  2917  001970  0E46               	movlw	70
  2918  001972  EC41  F019         	call	_buf_push
  2919  001976                     
  2920                           ;main.c: 466:             buf_push('E', OUTBUF);
  2921  001976  0E01               	movlw	1
  2922  001978  6E1D               	movwf	buf_push@buf^0,c
  2923  00197A  0E45               	movlw	69
  2924  00197C  EC41  F019         	call	_buf_push
  2925  001980                     
  2926                           ;main.c: 467:             buf_push('E', OUTBUF);
  2927  001980  0E01               	movlw	1
  2928  001982  6E1D               	movwf	buf_push@buf^0,c
  2929  001984  0E45               	movlw	69
  2930  001986  EC41  F019         	call	_buf_push
  2931  00198A                     
  2932                           ;main.c: 468:             buf_push((id / 100) % 10 + '0', OUTBUF);
  2933  00198A  0E01               	movlw	1
  2934  00198C  6E1D               	movwf	buf_push@buf^0,c
  2935  00198E  0E00               	movlw	0
  2936  001990  6E12               	movwf	(___awdiv@divisor+1)^0,c
  2937  001992  0E64               	movlw	100
  2938  001994  6E11               	movwf	___awdiv@divisor^0,c
  2939  001996  C0A9  F00F         	movff	eval_message@id_685,___awdiv@dividend
  2940  00199A  C0AA  F010         	movff	eval_message@id_685+1,___awdiv@dividend+1
  2941  00199E  EC90  F016         	call	___awdiv	;wreg free
  2942  0019A2  C00F  F017         	movff	?___awdiv,___awmod@dividend
  2943  0019A6  C010  F018         	movff	?___awdiv+1,___awmod@dividend+1
  2944  0019AA  0E00               	movlw	0
  2945  0019AC  6E1A               	movwf	(___awmod@divisor+1)^0,c
  2946  0019AE  0E0A               	movlw	10
  2947  0019B0  6E19               	movwf	___awmod@divisor^0,c
  2948  0019B2  ECF2  F016         	call	___awmod	;wreg free
  2949  0019B6  5017               	movf	?___awmod^0,w,c
  2950  0019B8  0F30               	addlw	48
  2951  0019BA  EC41  F019         	call	_buf_push
  2952  0019BE                     
  2953                           ;main.c: 469:             buf_push((id / 10) % 10 + '0', OUTBUF);
  2954  0019BE  0E01               	movlw	1
  2955  0019C0  6E1D               	movwf	buf_push@buf^0,c
  2956  0019C2  0E00               	movlw	0
  2957  0019C4  6E12               	movwf	(___awdiv@divisor+1)^0,c
  2958  0019C6  0E0A               	movlw	10
  2959  0019C8  6E11               	movwf	___awdiv@divisor^0,c
  2960  0019CA  C0A9  F00F         	movff	eval_message@id_685,___awdiv@dividend
  2961  0019CE  C0AA  F010         	movff	eval_message@id_685+1,___awdiv@dividend+1
  2962  0019D2  EC90  F016         	call	___awdiv	;wreg free
  2963  0019D6  C00F  F017         	movff	?___awdiv,___awmod@dividend
  2964  0019DA  C010  F018         	movff	?___awdiv+1,___awmod@dividend+1
  2965  0019DE  0E00               	movlw	0
  2966  0019E0  6E1A               	movwf	(___awmod@divisor+1)^0,c
  2967  0019E2  0E0A               	movlw	10
  2968  0019E4  6E19               	movwf	___awmod@divisor^0,c
  2969  0019E6  ECF2  F016         	call	___awmod	;wreg free
  2970  0019EA  5017               	movf	?___awmod^0,w,c
  2971  0019EC  0F30               	addlw	48
  2972  0019EE  EC41  F019         	call	_buf_push
  2973  0019F2                     
  2974                           ;main.c: 470:             buf_push((id % 10) + '0', OUTBUF);
  2975  0019F2  0E01               	movlw	1
  2976  0019F4  6E1D               	movwf	buf_push@buf^0,c
  2977  0019F6  C0A9  F017         	movff	eval_message@id_685,___awmod@dividend
  2978  0019FA  C0AA  F018         	movff	eval_message@id_685+1,___awmod@dividend+1
  2979  0019FE  0E00               	movlw	0
  2980  001A00  6E1A               	movwf	(___awmod@divisor+1)^0,c
  2981  001A02  0E0A               	movlw	10
  2982  001A04  6E19               	movwf	___awmod@divisor^0,c
  2983  001A06  ECF2  F016         	call	___awmod	;wreg free
  2984  001A0A  5017               	movf	?___awmod^0,w,c
  2985  001A0C  0F30               	addlw	48
  2986  001A0E  EC41  F019         	call	_buf_push
  2987  001A12                     
  2988                           ;main.c: 471:             buf_push((fee / 100) % 10 + '0', OUTBUF);
  2989  001A12  0E01               	movlw	1
  2990  001A14  6E1D               	movwf	buf_push@buf^0,c
  2991  001A16  0E00               	movlw	0
  2992  001A18  6E12               	movwf	(___awdiv@divisor+1)^0,c
  2993  001A1A  0E64               	movlw	100
  2994  001A1C  6E11               	movwf	___awdiv@divisor^0,c
  2995  001A1E  C0A0  F00F         	movff	eval_message@fee,___awdiv@dividend
  2996  001A22  C0A1  F010         	movff	eval_message@fee+1,___awdiv@dividend+1
  2997  001A26  EC90  F016         	call	___awdiv	;wreg free
  2998  001A2A  C00F  F017         	movff	?___awdiv,___awmod@dividend
  2999  001A2E  C010  F018         	movff	?___awdiv+1,___awmod@dividend+1
  3000  001A32  0E00               	movlw	0
  3001  001A34  6E1A               	movwf	(___awmod@divisor+1)^0,c
  3002  001A36  0E0A               	movlw	10
  3003  001A38  6E19               	movwf	___awmod@divisor^0,c
  3004  001A3A  ECF2  F016         	call	___awmod	;wreg free
  3005  001A3E  5017               	movf	?___awmod^0,w,c
  3006  001A40  0F30               	addlw	48
  3007  001A42  EC41  F019         	call	_buf_push
  3008  001A46                     
  3009                           ;main.c: 472:             buf_push((fee / 10) % 10 + '0', OUTBUF);
  3010  001A46  0E01               	movlw	1
  3011  001A48  6E1D               	movwf	buf_push@buf^0,c
  3012  001A4A  0E00               	movlw	0
  3013  001A4C  6E12               	movwf	(___awdiv@divisor+1)^0,c
  3014  001A4E  0E0A               	movlw	10
  3015  001A50  6E11               	movwf	___awdiv@divisor^0,c
  3016  001A52  C0A0  F00F         	movff	eval_message@fee,___awdiv@dividend
  3017  001A56  C0A1  F010         	movff	eval_message@fee+1,___awdiv@dividend+1
  3018  001A5A  EC90  F016         	call	___awdiv	;wreg free
  3019  001A5E  C00F  F017         	movff	?___awdiv,___awmod@dividend
  3020  001A62  C010  F018         	movff	?___awdiv+1,___awmod@dividend+1
  3021  001A66  0E00               	movlw	0
  3022  001A68  6E1A               	movwf	(___awmod@divisor+1)^0,c
  3023  001A6A  0E0A               	movlw	10
  3024  001A6C  6E19               	movwf	___awmod@divisor^0,c
  3025  001A6E  ECF2  F016         	call	___awmod	;wreg free
  3026  001A72  5017               	movf	?___awmod^0,w,c
  3027  001A74  0F30               	addlw	48
  3028  001A76  EC41  F019         	call	_buf_push
  3029  001A7A                     
  3030                           ;main.c: 473:             buf_push((fee % 10) + '0', OUTBUF);
  3031  001A7A  0E01               	movlw	1
  3032  001A7C  6E1D               	movwf	buf_push@buf^0,c
  3033  001A7E  C0A0  F017         	movff	eval_message@fee,___awmod@dividend
  3034  001A82  C0A1  F018         	movff	eval_message@fee+1,___awmod@dividend+1
  3035  001A86  0E00               	movlw	0
  3036  001A88  6E1A               	movwf	(___awmod@divisor+1)^0,c
  3037  001A8A  0E0A               	movlw	10
  3038  001A8C  6E19               	movwf	___awmod@divisor^0,c
  3039  001A8E  ECF2  F016         	call	___awmod	;wreg free
  3040  001A92  5017               	movf	?___awmod^0,w,c
  3041  001A94  0F30               	addlw	48
  3042  001A96  EC41  F019         	call	_buf_push
  3043  001A9A                     
  3044                           ;main.c: 474:             buf_push('#', OUTBUF);
  3045  001A9A  0E01               	movlw	1
  3046  001A9C  6E1D               	movwf	buf_push@buf^0,c
  3047  001A9E  0E23               	movlw	35
  3048  001AA0  EC41  F019         	call	_buf_push
  3049                           
  3050                           ;main.c: 477:             if(q.count > 0){
  3051  001AA4  0100               	movlb	0	; () banked
  3052  001AA6  BF83               	btfsc	(_q+35)& (0+255),7,b
  3053  001AA8  EF5E  F00D         	goto	u3041
  3054  001AAC  5183               	movf	(_q+35)& (0+255),w,b
  3055  001AAE  E108               	bnz	u3040
  3056  001AB0  0582               	decf	(_q+34)& (0+255),w,b
  3057  001AB2  A0D8               	btfss	status,0,c
  3058  001AB4  EF5E  F00D         	goto	u3041
  3059  001AB8  EF60  F00D         	goto	u3040
  3060  001ABC                     u3041:
  3061  001ABC  EFB9  F009         	goto	l3094
  3062  001AC0                     u3040:
  3063  001AC0                     
  3064                           ; BSR set to: 0
  3065                           ;main.c: 478:                 temp_id = dequeue();
  3066  001AC0  EC9F  F017         	call	_dequeue	;wreg free
  3067  001AC4  C00F  F038         	movff	?_dequeue,_temp_id
  3068  001AC8  C010  F039         	movff	?_dequeue+1,_temp_id+1
  3069  001ACC                     
  3070                           ;main.c: 479:                 park.floors[tmp_lvl - 'A'].slots[tmp_slot].id = temp_id;
  3071  001ACC  C0AE  F025         	movff	eval_message@tmp_slot_686,??_eval_message
  3072  001AD0  C0AF  F026         	movff	eval_message@tmp_slot_686+1,??_eval_message+1
  3073  001AD4  90D8               	bcf	status,0,c
  3074  001AD6  3625               	rlcf	??_eval_message^0,f,c
  3075  001AD8  3626               	rlcf	(??_eval_message+1)^0,f,c
  3076  001ADA  90D8               	bcf	status,0,c
  3077  001ADC  3625               	rlcf	??_eval_message^0,f,c
  3078  001ADE  3626               	rlcf	(??_eval_message+1)^0,f,c
  3079  001AE0  90D8               	bcf	status,0,c
  3080  001AE2  3625               	rlcf	??_eval_message^0,f,c
  3081  001AE4  3626               	rlcf	(??_eval_message+1)^0,f,c
  3082  001AE6  0100               	movlb	0	; () banked
  3083  001AE8  51B0               	movf	eval_message@tmp_lvl_687& (0+255),w,b
  3084  001AEA  0D53               	mullw	83
  3085  001AEC  0EF0               	movlw	240
  3086  001AEE  6E27               	movwf	(??_eval_message+2)^0,c
  3087  001AF0  0EEA               	movlw	234
  3088  001AF2  6E28               	movwf	(??_eval_message+3)^0,c
  3089  001AF4  0E00               	movlw	low _park
  3090  001AF6  6E29               	movwf	(??_eval_message+4)^0,c
  3091  001AF8  0E03               	movlw	high _park
  3092  001AFA  6E2A               	movwf	(??_eval_message+5)^0,c
  3093  001AFC  5027               	movf	(??_eval_message+2)^0,w,c
  3094  001AFE  2629               	addwf	(??_eval_message+4)^0,f,c
  3095  001B00  5028               	movf	(??_eval_message+3)^0,w,c
  3096  001B02  222A               	addwfc	(??_eval_message+5)^0,f,c
  3097  001B04  50F3               	movf	243,w,c
  3098  001B06  2629               	addwf	(??_eval_message+4)^0,f,c
  3099  001B08  50F4               	movf	244,w,c
  3100  001B0A  222A               	addwfc	(??_eval_message+5)^0,f,c
  3101  001B0C  5025               	movf	??_eval_message^0,w,c
  3102  001B0E  2429               	addwf	(??_eval_message+4)^0,w,c
  3103  001B10  6ED9               	movwf	fsr2l,c
  3104  001B12  5026               	movf	(??_eval_message+1)^0,w,c
  3105  001B14  202A               	addwfc	(??_eval_message+5)^0,w,c
  3106  001B16  6EDA               	movwf	fsr2h,c
  3107  001B18  C038  FFDE         	movff	_temp_id,postinc2
  3108  001B1C  C039  FFDD         	movff	_temp_id+1,postdec2
  3109  001B20                     
  3110                           ; BSR set to: 0
  3111                           ;main.c: 480:                 park.floors[tmp_lvl - 'A'].slots[tmp_slot].entry_time = ti
      +                          me_counter;
  3112  001B20  C0AE  F025         	movff	eval_message@tmp_slot_686,??_eval_message
  3113  001B24  C0AF  F026         	movff	eval_message@tmp_slot_686+1,??_eval_message+1
  3114  001B28  90D8               	bcf	status,0,c
  3115  001B2A  3625               	rlcf	??_eval_message^0,f,c
  3116  001B2C  3626               	rlcf	(??_eval_message+1)^0,f,c
  3117  001B2E  90D8               	bcf	status,0,c
  3118  001B30  3625               	rlcf	??_eval_message^0,f,c
  3119  001B32  3626               	rlcf	(??_eval_message+1)^0,f,c
  3120  001B34  90D8               	bcf	status,0,c
  3121  001B36  3625               	rlcf	??_eval_message^0,f,c
  3122  001B38  3626               	rlcf	(??_eval_message+1)^0,f,c
  3123  001B3A  51B0               	movf	eval_message@tmp_lvl_687& (0+255),w,b
  3124  001B3C  0D53               	mullw	83
  3125  001B3E  0EF4               	movlw	244
  3126  001B40  6E27               	movwf	(??_eval_message+2)^0,c
  3127  001B42  0EEA               	movlw	234
  3128  001B44  6E28               	movwf	(??_eval_message+3)^0,c
  3129  001B46  0E00               	movlw	low _park
  3130  001B48  6E29               	movwf	(??_eval_message+4)^0,c
  3131  001B4A  0E03               	movlw	high _park
  3132  001B4C  6E2A               	movwf	(??_eval_message+5)^0,c
  3133  001B4E  5027               	movf	(??_eval_message+2)^0,w,c
  3134  001B50  2629               	addwf	(??_eval_message+4)^0,f,c
  3135  001B52  5028               	movf	(??_eval_message+3)^0,w,c
  3136  001B54  222A               	addwfc	(??_eval_message+5)^0,f,c
  3137  001B56  50F3               	movf	243,w,c
  3138  001B58  2629               	addwf	(??_eval_message+4)^0,f,c
  3139  001B5A  50F4               	movf	244,w,c
  3140  001B5C  222A               	addwfc	(??_eval_message+5)^0,f,c
  3141  001B5E  5025               	movf	??_eval_message^0,w,c
  3142  001B60  2429               	addwf	(??_eval_message+4)^0,w,c
  3143  001B62  6ED9               	movwf	fsr2l,c
  3144  001B64  5026               	movf	(??_eval_message+1)^0,w,c
  3145  001B66  202A               	addwfc	(??_eval_message+5)^0,w,c
  3146  001B68  6EDA               	movwf	fsr2h,c
  3147  001B6A  C04B  FFDE         	movff	_time_counter,postinc2
  3148  001B6E  C04C  FFDD         	movff	_time_counter+1,postdec2
  3149  001B72                     
  3150                           ; BSR set to: 0
  3151                           ;main.c: 481:                 park.floors[tmp_lvl - 'A'].slots[tmp_slot].occupied = 1;
  3152  001B72  C0AE  F025         	movff	eval_message@tmp_slot_686,??_eval_message
  3153  001B76  C0AF  F026         	movff	eval_message@tmp_slot_686+1,??_eval_message+1
  3154  001B7A  90D8               	bcf	status,0,c
  3155  001B7C  3625               	rlcf	??_eval_message^0,f,c
  3156  001B7E  3626               	rlcf	(??_eval_message+1)^0,f,c
  3157  001B80  90D8               	bcf	status,0,c
  3158  001B82  3625               	rlcf	??_eval_message^0,f,c
  3159  001B84  3626               	rlcf	(??_eval_message+1)^0,f,c
  3160  001B86  90D8               	bcf	status,0,c
  3161  001B88  3625               	rlcf	??_eval_message^0,f,c
  3162  001B8A  3626               	rlcf	(??_eval_message+1)^0,f,c
  3163  001B8C  51B0               	movf	eval_message@tmp_lvl_687& (0+255),w,b
  3164  001B8E  0D53               	mullw	83
  3165  001B90  0EF6               	movlw	246
  3166  001B92  6E27               	movwf	(??_eval_message+2)^0,c
  3167  001B94  0EEA               	movlw	234
  3168  001B96  6E28               	movwf	(??_eval_message+3)^0,c
  3169  001B98  0E00               	movlw	low _park
  3170  001B9A  6E29               	movwf	(??_eval_message+4)^0,c
  3171  001B9C  0E03               	movlw	high _park
  3172  001B9E  6E2A               	movwf	(??_eval_message+5)^0,c
  3173  001BA0  5027               	movf	(??_eval_message+2)^0,w,c
  3174  001BA2  2629               	addwf	(??_eval_message+4)^0,f,c
  3175  001BA4  5028               	movf	(??_eval_message+3)^0,w,c
  3176  001BA6  222A               	addwfc	(??_eval_message+5)^0,f,c
  3177  001BA8  50F3               	movf	243,w,c
  3178  001BAA  2629               	addwf	(??_eval_message+4)^0,f,c
  3179  001BAC  50F4               	movf	244,w,c
  3180  001BAE  222A               	addwfc	(??_eval_message+5)^0,f,c
  3181  001BB0  5025               	movf	??_eval_message^0,w,c
  3182  001BB2  2429               	addwf	(??_eval_message+4)^0,w,c
  3183  001BB4  6ED9               	movwf	fsr2l,c
  3184  001BB6  5026               	movf	(??_eval_message+1)^0,w,c
  3185  001BB8  202A               	addwfc	(??_eval_message+5)^0,w,c
  3186  001BBA  6EDA               	movwf	fsr2h,c
  3187  001BBC  0E01               	movlw	1
  3188  001BBE  6EDE               	movwf	postinc2,c
  3189  001BC0  0E00               	movlw	0
  3190  001BC2  6EDD               	movwf	postdec2,c
  3191  001BC4                     
  3192                           ; BSR set to: 0
  3193                           ;main.c: 482:                 park.floors[tmp_lvl - 'A'].available_f--;
  3194  001BC4  51B0               	movf	eval_message@tmp_lvl_687& (0+255),w,b
  3195  001BC6  0D53               	mullw	83
  3196  001BC8  0E40               	movlw	low (_park+60224)
  3197  001BCA  24F3               	addwf	243,w,c
  3198  001BCC  6ED9               	movwf	fsr2l,c
  3199  001BCE  0EEE               	movlw	high (_park+60224)
  3200  001BD0  20F4               	addwfc	prodh,w,c
  3201  001BD2  6EDA               	movwf	fsr2h,c
  3202  001BD4  06DE               	decf	postinc2,f,c
  3203  001BD6  0E00               	movlw	0
  3204  001BD8  5ADD               	subwfb	postdec2,f,c
  3205  001BDA                     
  3206                           ; BSR set to: 0
  3207                           ;main.c: 483:                 park.available--;
  3208  001BDA  EE23  F000         	lfsr	2,_park
  3209  001BDE  06DE               	decf	postinc2,f,c
  3210  001BE0  0E00               	movlw	0
  3211  001BE2  5ADD               	subwfb	postdec2,f,c
  3212  001BE4                     
  3213                           ; BSR set to: 0
  3214                           ;main.c: 484:                 tmp_slot++;
  3215  001BE4  4BAE               	infsnz	eval_message@tmp_slot_686& (0+255),f,b
  3216  001BE6  2BAF               	incf	(eval_message@tmp_slot_686+1)& (0+255),f,b
  3217  001BE8                     
  3218                           ; BSR set to: 0
  3219                           ;main.c: 485:                 buf_push('$', OUTBUF);
  3220  001BE8  0E01               	movlw	1
  3221  001BEA  6E1D               	movwf	buf_push@buf^0,c
  3222  001BEC  0E24               	movlw	36
  3223  001BEE  EC41  F019         	call	_buf_push
  3224  001BF2                     
  3225                           ;main.c: 486:                 buf_push('S', OUTBUF);
  3226  001BF2  0E01               	movlw	1
  3227  001BF4  6E1D               	movwf	buf_push@buf^0,c
  3228  001BF6  0E53               	movlw	83
  3229  001BF8  EC41  F019         	call	_buf_push
  3230  001BFC                     
  3231                           ;main.c: 487:                 buf_push('P', OUTBUF);
  3232  001BFC  0E01               	movlw	1
  3233  001BFE  6E1D               	movwf	buf_push@buf^0,c
  3234  001C00  0E50               	movlw	80
  3235  001C02  EC41  F019         	call	_buf_push
  3236  001C06                     
  3237                           ;main.c: 488:                 buf_push('C', OUTBUF);
  3238  001C06  0E01               	movlw	1
  3239  001C08  6E1D               	movwf	buf_push@buf^0,c
  3240  001C0A  0E43               	movlw	67
  3241  001C0C  EC41  F019         	call	_buf_push
  3242  001C10                     
  3243                           ;main.c: 489:                 buf_push((temp_id / 100) % 10 + '0', OUTBUF);
  3244  001C10  0E01               	movlw	1
  3245  001C12  6E1D               	movwf	buf_push@buf^0,c
  3246  001C14  0E00               	movlw	0
  3247  001C16  6E12               	movwf	(___awdiv@divisor+1)^0,c
  3248  001C18  0E64               	movlw	100
  3249  001C1A  6E11               	movwf	___awdiv@divisor^0,c
  3250  001C1C  C038  F00F         	movff	_temp_id,___awdiv@dividend
  3251  001C20  C039  F010         	movff	_temp_id+1,___awdiv@dividend+1
  3252  001C24  EC90  F016         	call	___awdiv	;wreg free
  3253  001C28  C00F  F017         	movff	?___awdiv,___awmod@dividend
  3254  001C2C  C010  F018         	movff	?___awdiv+1,___awmod@dividend+1
  3255  001C30  0E00               	movlw	0
  3256  001C32  6E1A               	movwf	(___awmod@divisor+1)^0,c
  3257  001C34  0E0A               	movlw	10
  3258  001C36  6E19               	movwf	___awmod@divisor^0,c
  3259  001C38  ECF2  F016         	call	___awmod	;wreg free
  3260  001C3C  5017               	movf	?___awmod^0,w,c
  3261  001C3E  0F30               	addlw	48
  3262  001C40  EC41  F019         	call	_buf_push
  3263  001C44                     
  3264                           ;main.c: 490:                 buf_push((temp_id / 10) % 10 + '0', OUTBUF);
  3265  001C44  0E01               	movlw	1
  3266  001C46  6E1D               	movwf	buf_push@buf^0,c
  3267  001C48  0E00               	movlw	0
  3268  001C4A  6E12               	movwf	(___awdiv@divisor+1)^0,c
  3269  001C4C  0E0A               	movlw	10
  3270  001C4E  6E11               	movwf	___awdiv@divisor^0,c
  3271  001C50  C038  F00F         	movff	_temp_id,___awdiv@dividend
  3272  001C54  C039  F010         	movff	_temp_id+1,___awdiv@dividend+1
  3273  001C58  EC90  F016         	call	___awdiv	;wreg free
  3274  001C5C  C00F  F017         	movff	?___awdiv,___awmod@dividend
  3275  001C60  C010  F018         	movff	?___awdiv+1,___awmod@dividend+1
  3276  001C64  0E00               	movlw	0
  3277  001C66  6E1A               	movwf	(___awmod@divisor+1)^0,c
  3278  001C68  0E0A               	movlw	10
  3279  001C6A  6E19               	movwf	___awmod@divisor^0,c
  3280  001C6C  ECF2  F016         	call	___awmod	;wreg free
  3281  001C70  5017               	movf	?___awmod^0,w,c
  3282  001C72  0F30               	addlw	48
  3283  001C74  EC41  F019         	call	_buf_push
  3284  001C78                     
  3285                           ;main.c: 491:                 buf_push((temp_id % 10) + '0', OUTBUF);
  3286  001C78  0E01               	movlw	1
  3287  001C7A  6E1D               	movwf	buf_push@buf^0,c
  3288  001C7C  C038  F017         	movff	_temp_id,___awmod@dividend
  3289  001C80  C039  F018         	movff	_temp_id+1,___awmod@dividend+1
  3290  001C84  0E00               	movlw	0
  3291  001C86  6E1A               	movwf	(___awmod@divisor+1)^0,c
  3292  001C88  0E0A               	movlw	10
  3293  001C8A  6E19               	movwf	___awmod@divisor^0,c
  3294  001C8C  ECF2  F016         	call	___awmod	;wreg free
  3295  001C90  5017               	movf	?___awmod^0,w,c
  3296  001C92  0F30               	addlw	48
  3297  001C94  EC41  F019         	call	_buf_push
  3298  001C98                     
  3299                           ;main.c: 492:                 buf_push(tmp_lvl, OUTBUF);
  3300  001C98  0E01               	movlw	1
  3301  001C9A  6E1D               	movwf	buf_push@buf^0,c
  3302  001C9C  0100               	movlb	0	; () banked
  3303  001C9E  51B0               	movf	eval_message@tmp_lvl_687& (0+255),w,b
  3304  001CA0  EC41  F019         	call	_buf_push
  3305  001CA4                     
  3306                           ;main.c: 493:                 buf_push((tmp_slot / 10) + '0', OUTBUF);
  3307  001CA4  0E01               	movlw	1
  3308  001CA6  6E1D               	movwf	buf_push@buf^0,c
  3309  001CA8  C0AE  F00F         	movff	eval_message@tmp_slot_686,___awdiv@dividend
  3310  001CAC  C0AF  F010         	movff	eval_message@tmp_slot_686+1,___awdiv@dividend+1
  3311  001CB0  0E00               	movlw	0
  3312  001CB2  6E12               	movwf	(___awdiv@divisor+1)^0,c
  3313  001CB4  0E0A               	movlw	10
  3314  001CB6  6E11               	movwf	___awdiv@divisor^0,c
  3315  001CB8  EC90  F016         	call	___awdiv	;wreg free
  3316  001CBC  500F               	movf	?___awdiv^0,w,c
  3317  001CBE  0F30               	addlw	48
  3318  001CC0  EC41  F019         	call	_buf_push
  3319  001CC4                     
  3320                           ;main.c: 494:                 buf_push((tmp_slot % 10) + '0', OUTBUF);
  3321  001CC4  0E01               	movlw	1
  3322  001CC6  6E1D               	movwf	buf_push@buf^0,c
  3323  001CC8  C0AE  F017         	movff	eval_message@tmp_slot_686,___awmod@dividend
  3324  001CCC  C0AF  F018         	movff	eval_message@tmp_slot_686+1,___awmod@dividend+1
  3325  001CD0  0E00               	movlw	0
  3326  001CD2  6E1A               	movwf	(___awmod@divisor+1)^0,c
  3327  001CD4  0E0A               	movlw	10
  3328  001CD6  6E19               	movwf	___awmod@divisor^0,c
  3329  001CD8  ECF2  F016         	call	___awmod	;wreg free
  3330  001CDC  5017               	movf	?___awmod^0,w,c
  3331  001CDE  0F30               	addlw	48
  3332  001CE0  EC41  F019         	call	_buf_push
  3333  001CE4                     
  3334                           ;main.c: 495:                 buf_push('#', OUTBUF);
  3335  001CE4  0E01               	movlw	1
  3336  001CE6  6E1D               	movwf	buf_push@buf^0,c
  3337  001CE8  0E23               	movlw	35
  3338  001CEA  EC41  F019         	call	_buf_push
  3339  001CEE                     
  3340                           ;main.c: 496:                 new_message_flag = 1;
  3341  001CEE  0E00               	movlw	0
  3342  001CF0  6E37               	movwf	(_new_message_flag+1)^0,c
  3343  001CF2  0E01               	movlw	1
  3344  001CF4  6E36               	movwf	_new_message_flag^0,c
  3345  001CF6  EFB9  F009         	goto	l3094
  3346  001CFA                     l3262:
  3347  001CFA  0E8C               	movlw	low _buffer
  3348  001CFC  6E0F               	movwf	is_same@a^0,c
  3349  001CFE  0E00               	movlw	high _buffer
  3350  001D00  6E10               	movwf	(is_same@a+1)^0,c
  3351  001D02  0E0B               	movlw	low STR_9
  3352  001D04  6E11               	movwf	is_same@b^0,c
  3353  001D06  0E10               	movlw	high STR_9
  3354  001D08  6E12               	movwf	(is_same@b+1)^0,c
  3355  001D0A  0E00               	movlw	0
  3356  001D0C  6E14               	movwf	(is_same@n+1)^0,c
  3357  001D0E  0E03               	movlw	3
  3358  001D10  6E13               	movwf	is_same@n^0,c
  3359  001D12  EC03  F019         	call	_is_same	;wreg free
  3360  001D16  500F               	movf	?_is_same^0,w,c
  3361  001D18  1010               	iorwf	(?_is_same+1)^0,w,c
  3362  001D1A  B4D8               	btfsc	status,2,c
  3363  001D1C  EF92  F00E         	goto	u3051
  3364  001D20  EF94  F00E         	goto	u3050
  3365  001D24                     u3051:
  3366  001D24  EF7E  F008         	goto	l227
  3367  001D28                     u3050:
  3368  001D28  5046               	movf	_run_flag^0,w,c
  3369  001D2A  1047               	iorwf	(_run_flag+1)^0,w,c
  3370  001D2C  B4D8               	btfsc	status,2,c
  3371  001D2E  EF9B  F00E         	goto	u3061
  3372  001D32  EF9D  F00E         	goto	u3060
  3373  001D36                     u3061:
  3374  001D36  EF7E  F008         	goto	l227
  3375  001D3A                     u3060:
  3376  001D3A                     
  3377                           ;main.c: 504:         int id = (buffer[3] - '0') * 100 + (buffer[4] - '0') * 10 + (buffe
      +                          r[5] - '0');
  3378  001D3A  0100               	movlb	0	; () banked
  3379  001D3C  518F               	movf	(_buffer+3)& (0+255),w,b
  3380  001D3E  0D64               	mullw	100
  3381  001D40  CFF3 F025          	movff	prodl,??_eval_message
  3382  001D44  CFF4 F026          	movff	prodh,??_eval_message+1
  3383  001D48  5190               	movf	(_buffer+4)& (0+255),w,b
  3384  001D4A  0D0A               	mullw	10
  3385  001D4C  50F3               	movf	243,w,c
  3386  001D4E  2625               	addwf	??_eval_message^0,f,c
  3387  001D50  50F4               	movf	244,w,c
  3388  001D52  2226               	addwfc	(??_eval_message+1)^0,f,c
  3389  001D54  5191               	movf	(_buffer+5)& (0+255),w,b
  3390  001D56  2625               	addwf	??_eval_message^0,f,c
  3391  001D58  0E00               	movlw	0
  3392  001D5A  2226               	addwfc	(??_eval_message+1)^0,f,c
  3393  001D5C  0E30               	movlw	48
  3394  001D5E  2425               	addwf	??_eval_message^0,w,c
  3395  001D60  6FA2               	movwf	eval_message@id_691& (0+255),b
  3396  001D62  0EEB               	movlw	235
  3397  001D64  2026               	addwfc	(??_eval_message+1)^0,w,c
  3398  001D66  6FA3               	movwf	(eval_message@id_691+1)& (0+255),b
  3399  001D68                     
  3400                           ; BSR set to: 0
  3401                           ;main.c: 505:         if(buffer[3] < '0' || buffer[3] > '9') return;
  3402  001D68  0E2F               	movlw	47
  3403  001D6A  658F               	cpfsgt	(_buffer+3)& (0+255),b
  3404  001D6C  EFBA  F00E         	goto	u3071
  3405  001D70  EFBC  F00E         	goto	u3070
  3406  001D74                     u3071:
  3407  001D74  EFA2  F010         	goto	l228
  3408  001D78                     u3070:
  3409  001D78                     
  3410                           ; BSR set to: 0
  3411  001D78  0E39               	movlw	57
  3412  001D7A  658F               	cpfsgt	(_buffer+3)& (0+255),b
  3413  001D7C  EFC2  F00E         	goto	u3081
  3414  001D80  EFC4  F00E         	goto	u3080
  3415  001D84                     u3081:
  3416  001D84  EFC6  F00E         	goto	l3272
  3417  001D88                     u3080:
  3418  001D88  EFA2  F010         	goto	l228
  3419  001D8C                     l3272:
  3420                           
  3421                           ; BSR set to: 0
  3422                           ;main.c: 506:         if(buffer[4] < '0' || buffer[4] > '9') return;
  3423  001D8C  0E2F               	movlw	47
  3424  001D8E  6590               	cpfsgt	(_buffer+4)& (0+255),b
  3425  001D90  EFCC  F00E         	goto	u3091
  3426  001D94  EFCE  F00E         	goto	u3090
  3427  001D98                     u3091:
  3428  001D98  EFA2  F010         	goto	l228
  3429  001D9C                     u3090:
  3430  001D9C                     
  3431                           ; BSR set to: 0
  3432  001D9C  0E39               	movlw	57
  3433  001D9E  6590               	cpfsgt	(_buffer+4)& (0+255),b
  3434  001DA0  EFD4  F00E         	goto	u3101
  3435  001DA4  EFD6  F00E         	goto	u3100
  3436  001DA8                     u3101:
  3437  001DA8  EFD8  F00E         	goto	l3276
  3438  001DAC                     u3100:
  3439  001DAC  EFA2  F010         	goto	l228
  3440  001DB0                     l3276:
  3441                           
  3442                           ; BSR set to: 0
  3443                           ;main.c: 507:         if(buffer[5] < '0' || buffer[5] > '9') return;
  3444  001DB0  0E2F               	movlw	47
  3445  001DB2  6591               	cpfsgt	(_buffer+5)& (0+255),b
  3446  001DB4  EFDE  F00E         	goto	u3111
  3447  001DB8  EFE0  F00E         	goto	u3110
  3448  001DBC                     u3111:
  3449  001DBC  EFA2  F010         	goto	l228
  3450  001DC0                     u3110:
  3451  001DC0                     
  3452                           ; BSR set to: 0
  3453  001DC0  0E39               	movlw	57
  3454  001DC2  6591               	cpfsgt	(_buffer+5)& (0+255),b
  3455  001DC4  EFE6  F00E         	goto	u3121
  3456  001DC8  EFE8  F00E         	goto	u3120
  3457  001DCC                     u3121:
  3458  001DCC  EFEA  F00E         	goto	l3280
  3459  001DD0                     u3120:
  3460  001DD0  EFA2  F010         	goto	l228
  3461  001DD4                     l3280:
  3462                           
  3463                           ; BSR set to: 0
  3464                           ;main.c: 509:         if(buffer[6] != 'A' && buffer[6] != 'B' && buffer[6] != 'C' && buf
      +                          fer[6] != 'D') return;
  3465  001DD4  0E41               	movlw	65
  3466  001DD6  1992               	xorwf	(_buffer+6)& (0+255),w,b
  3467  001DD8  B4D8               	btfsc	status,2,c
  3468  001DDA  EFF1  F00E         	goto	u3131
  3469  001DDE  EFF3  F00E         	goto	u3130
  3470  001DE2                     u3131:
  3471  001DE2  EF10  F00F         	goto	l3290
  3472  001DE6                     u3130:
  3473  001DE6                     
  3474                           ; BSR set to: 0
  3475  001DE6  0E42               	movlw	66
  3476  001DE8  1992               	xorwf	(_buffer+6)& (0+255),w,b
  3477  001DEA  B4D8               	btfsc	status,2,c
  3478  001DEC  EFFA  F00E         	goto	u3141
  3479  001DF0  EFFC  F00E         	goto	u3140
  3480  001DF4                     u3141:
  3481  001DF4  EF10  F00F         	goto	l3290
  3482  001DF8                     u3140:
  3483  001DF8                     
  3484                           ; BSR set to: 0
  3485  001DF8  0E43               	movlw	67
  3486  001DFA  1992               	xorwf	(_buffer+6)& (0+255),w,b
  3487  001DFC  B4D8               	btfsc	status,2,c
  3488  001DFE  EF03  F00F         	goto	u3151
  3489  001E02  EF05  F00F         	goto	u3150
  3490  001E06                     u3151:
  3491  001E06  EF10  F00F         	goto	l3290
  3492  001E0A                     u3150:
  3493  001E0A                     
  3494                           ; BSR set to: 0
  3495  001E0A  0E44               	movlw	68
  3496  001E0C  1992               	xorwf	(_buffer+6)& (0+255),w,b
  3497  001E0E  B4D8               	btfsc	status,2,c
  3498  001E10  EF0C  F00F         	goto	u3161
  3499  001E14  EF0E  F00F         	goto	u3160
  3500  001E18                     u3161:
  3501  001E18  EF10  F00F         	goto	l3290
  3502  001E1C                     u3160:
  3503  001E1C  EFA2  F010         	goto	l228
  3504  001E20                     l3290:
  3505                           
  3506                           ; BSR set to: 0
  3507                           ;main.c: 511:         if(buffer[7] != '0' && buffer[7] != '1') return;
  3508  001E20  0E30               	movlw	48
  3509  001E22  1993               	xorwf	(_buffer+7)& (0+255),w,b
  3510  001E24  B4D8               	btfsc	status,2,c
  3511  001E26  EF17  F00F         	goto	u3171
  3512  001E2A  EF19  F00F         	goto	u3170
  3513  001E2E                     u3171:
  3514  001E2E  EF24  F00F         	goto	l3296
  3515  001E32                     u3170:
  3516  001E32                     
  3517                           ; BSR set to: 0
  3518  001E32  0E31               	movlw	49
  3519  001E34  1993               	xorwf	(_buffer+7)& (0+255),w,b
  3520  001E36  B4D8               	btfsc	status,2,c
  3521  001E38  EF20  F00F         	goto	u3181
  3522  001E3C  EF22  F00F         	goto	u3180
  3523  001E40                     u3181:
  3524  001E40  EF24  F00F         	goto	l3296
  3525  001E44                     u3180:
  3526  001E44  EFA2  F010         	goto	l228
  3527  001E48                     l3296:
  3528                           
  3529                           ; BSR set to: 0
  3530                           ;main.c: 512:         if(buffer[8] < '0' || buffer[8] > '9') return;
  3531  001E48  0E2F               	movlw	47
  3532  001E4A  6594               	cpfsgt	(_buffer+8)& (0+255),b
  3533  001E4C  EF2A  F00F         	goto	u3191
  3534  001E50  EF2C  F00F         	goto	u3190
  3535  001E54                     u3191:
  3536  001E54  EFA2  F010         	goto	l228
  3537  001E58                     u3190:
  3538  001E58                     
  3539                           ; BSR set to: 0
  3540  001E58  0E39               	movlw	57
  3541  001E5A  6594               	cpfsgt	(_buffer+8)& (0+255),b
  3542  001E5C  EF32  F00F         	goto	u3201
  3543  001E60  EF34  F00F         	goto	u3200
  3544  001E64                     u3201:
  3545  001E64  EF36  F00F         	goto	l266
  3546  001E68                     u3200:
  3547  001E68  EFA2  F010         	goto	l228
  3548  001E6C                     l266:
  3549                           
  3550                           ; BSR set to: 0
  3551                           ;main.c: 514:         char lvl_no = buffer[6];
  3552  001E6C  C092  F0A6         	movff	_buffer+6,eval_message@lvl_no
  3553  001E70                     
  3554                           ; BSR set to: 0
  3555                           ;main.c: 516:         int slot_no = (buffer[7] - '0') * 10 + (buffer[8] - '0');
  3556  001E70  5193               	movf	(_buffer+7)& (0+255),w,b
  3557  001E72  0D0A               	mullw	10
  3558  001E74  CFF3 F025          	movff	prodl,??_eval_message
  3559  001E78  CFF4 F026          	movff	prodh,??_eval_message+1
  3560  001E7C  5194               	movf	(_buffer+8)& (0+255),w,b
  3561  001E7E  2625               	addwf	??_eval_message^0,f,c
  3562  001E80  0E00               	movlw	0
  3563  001E82  2226               	addwfc	(??_eval_message+1)^0,f,c
  3564  001E84  0EF0               	movlw	240
  3565  001E86  2425               	addwf	??_eval_message^0,w,c
  3566  001E88  6FA7               	movwf	eval_message@slot_no& (0+255),b
  3567  001E8A  0EFD               	movlw	253
  3568  001E8C  2026               	addwfc	(??_eval_message+1)^0,w,c
  3569  001E8E  6FA8               	movwf	(eval_message@slot_no+1)& (0+255),b
  3570  001E90                     
  3571                           ; BSR set to: 0
  3572                           ;main.c: 517:         slot_no--;
  3573  001E90  07A7               	decf	eval_message@slot_no& (0+255),f,b
  3574  001E92  A0D8               	btfss	status,0,c
  3575  001E94  07A8               	decf	(eval_message@slot_no+1)& (0+255),f,b
  3576  001E96                     
  3577                           ; BSR set to: 0
  3578                           ;main.c: 519:         buf_push('$', OUTBUF);
  3579  001E96  0E01               	movlw	1
  3580  001E98  6E1D               	movwf	buf_push@buf^0,c
  3581  001E9A  0E24               	movlw	36
  3582  001E9C  EC41  F019         	call	_buf_push
  3583  001EA0                     
  3584                           ;main.c: 520:         buf_push('R', OUTBUF);
  3585  001EA0  0E01               	movlw	1
  3586  001EA2  6E1D               	movwf	buf_push@buf^0,c
  3587  001EA4  0E52               	movlw	82
  3588  001EA6  EC41  F019         	call	_buf_push
  3589  001EAA                     
  3590                           ;main.c: 521:         buf_push('E', OUTBUF);
  3591  001EAA  0E01               	movlw	1
  3592  001EAC  6E1D               	movwf	buf_push@buf^0,c
  3593  001EAE  0E45               	movlw	69
  3594  001EB0  EC41  F019         	call	_buf_push
  3595  001EB4                     
  3596                           ;main.c: 522:         buf_push('S', OUTBUF);
  3597  001EB4  0E01               	movlw	1
  3598  001EB6  6E1D               	movwf	buf_push@buf^0,c
  3599  001EB8  0E53               	movlw	83
  3600  001EBA  EC41  F019         	call	_buf_push
  3601  001EBE                     
  3602                           ;main.c: 523:         buf_push((id / 100) % 10 + '0', OUTBUF);
  3603  001EBE  0E01               	movlw	1
  3604  001EC0  6E1D               	movwf	buf_push@buf^0,c
  3605  001EC2  0E00               	movlw	0
  3606  001EC4  6E12               	movwf	(___awdiv@divisor+1)^0,c
  3607  001EC6  0E64               	movlw	100
  3608  001EC8  6E11               	movwf	___awdiv@divisor^0,c
  3609  001ECA  C0A2  F00F         	movff	eval_message@id_691,___awdiv@dividend
  3610  001ECE  C0A3  F010         	movff	eval_message@id_691+1,___awdiv@dividend+1
  3611  001ED2  EC90  F016         	call	___awdiv	;wreg free
  3612  001ED6  C00F  F017         	movff	?___awdiv,___awmod@dividend
  3613  001EDA  C010  F018         	movff	?___awdiv+1,___awmod@dividend+1
  3614  001EDE  0E00               	movlw	0
  3615  001EE0  6E1A               	movwf	(___awmod@divisor+1)^0,c
  3616  001EE2  0E0A               	movlw	10
  3617  001EE4  6E19               	movwf	___awmod@divisor^0,c
  3618  001EE6  ECF2  F016         	call	___awmod	;wreg free
  3619  001EEA  5017               	movf	?___awmod^0,w,c
  3620  001EEC  0F30               	addlw	48
  3621  001EEE  EC41  F019         	call	_buf_push
  3622  001EF2                     
  3623                           ;main.c: 524:         buf_push((id / 10) % 10 + '0', OUTBUF);
  3624  001EF2  0E01               	movlw	1
  3625  001EF4  6E1D               	movwf	buf_push@buf^0,c
  3626  001EF6  0E00               	movlw	0
  3627  001EF8  6E12               	movwf	(___awdiv@divisor+1)^0,c
  3628  001EFA  0E0A               	movlw	10
  3629  001EFC  6E11               	movwf	___awdiv@divisor^0,c
  3630  001EFE  C0A2  F00F         	movff	eval_message@id_691,___awdiv@dividend
  3631  001F02  C0A3  F010         	movff	eval_message@id_691+1,___awdiv@dividend+1
  3632  001F06  EC90  F016         	call	___awdiv	;wreg free
  3633  001F0A  C00F  F017         	movff	?___awdiv,___awmod@dividend
  3634  001F0E  C010  F018         	movff	?___awdiv+1,___awmod@dividend+1
  3635  001F12  0E00               	movlw	0
  3636  001F14  6E1A               	movwf	(___awmod@divisor+1)^0,c
  3637  001F16  0E0A               	movlw	10
  3638  001F18  6E19               	movwf	___awmod@divisor^0,c
  3639  001F1A  ECF2  F016         	call	___awmod	;wreg free
  3640  001F1E  5017               	movf	?___awmod^0,w,c
  3641  001F20  0F30               	addlw	48
  3642  001F22  EC41  F019         	call	_buf_push
  3643  001F26                     
  3644                           ;main.c: 525:         buf_push((id % 10) + '0', OUTBUF);
  3645  001F26  0E01               	movlw	1
  3646  001F28  6E1D               	movwf	buf_push@buf^0,c
  3647  001F2A  C0A2  F017         	movff	eval_message@id_691,___awmod@dividend
  3648  001F2E  C0A3  F018         	movff	eval_message@id_691+1,___awmod@dividend+1
  3649  001F32  0E00               	movlw	0
  3650  001F34  6E1A               	movwf	(___awmod@divisor+1)^0,c
  3651  001F36  0E0A               	movlw	10
  3652  001F38  6E19               	movwf	___awmod@divisor^0,c
  3653  001F3A  ECF2  F016         	call	___awmod	;wreg free
  3654  001F3E  5017               	movf	?___awmod^0,w,c
  3655  001F40  0F30               	addlw	48
  3656  001F42  EC41  F019         	call	_buf_push
  3657  001F46                     
  3658                           ;main.c: 527:         if (park.floors[lvl_no - 'A'].slots[slot_no].subscribe == 0 && par
      +                          k.floors[lvl_no - 'A'].slots[slot_no].entry_time == 0 && park.floors[lvl_no - 'A'].slots
      +                          [slot_no].occupied == 0) {
  3659  001F46  C0A7  F025         	movff	eval_message@slot_no,??_eval_message
  3660  001F4A  C0A8  F026         	movff	eval_message@slot_no+1,??_eval_message+1
  3661  001F4E  90D8               	bcf	status,0,c
  3662  001F50  3625               	rlcf	??_eval_message^0,f,c
  3663  001F52  3626               	rlcf	(??_eval_message+1)^0,f,c
  3664  001F54  90D8               	bcf	status,0,c
  3665  001F56  3625               	rlcf	??_eval_message^0,f,c
  3666  001F58  3626               	rlcf	(??_eval_message+1)^0,f,c
  3667  001F5A  90D8               	bcf	status,0,c
  3668  001F5C  3625               	rlcf	??_eval_message^0,f,c
  3669  001F5E  3626               	rlcf	(??_eval_message+1)^0,f,c
  3670  001F60  0100               	movlb	0	; () banked
  3671  001F62  51A6               	movf	eval_message@lvl_no& (0+255),w,b
  3672  001F64  0D53               	mullw	83
  3673  001F66  0EF2               	movlw	242
  3674  001F68  6E27               	movwf	(??_eval_message+2)^0,c
  3675  001F6A  0EEA               	movlw	234
  3676  001F6C  6E28               	movwf	(??_eval_message+3)^0,c
  3677  001F6E  0E00               	movlw	low _park
  3678  001F70  6E29               	movwf	(??_eval_message+4)^0,c
  3679  001F72  0E03               	movlw	high _park
  3680  001F74  6E2A               	movwf	(??_eval_message+5)^0,c
  3681  001F76  5027               	movf	(??_eval_message+2)^0,w,c
  3682  001F78  2629               	addwf	(??_eval_message+4)^0,f,c
  3683  001F7A  5028               	movf	(??_eval_message+3)^0,w,c
  3684  001F7C  222A               	addwfc	(??_eval_message+5)^0,f,c
  3685  001F7E  50F3               	movf	243,w,c
  3686  001F80  2629               	addwf	(??_eval_message+4)^0,f,c
  3687  001F82  50F4               	movf	244,w,c
  3688  001F84  222A               	addwfc	(??_eval_message+5)^0,f,c
  3689  001F86  5025               	movf	??_eval_message^0,w,c
  3690  001F88  2429               	addwf	(??_eval_message+4)^0,w,c
  3691  001F8A  6ED9               	movwf	fsr2l,c
  3692  001F8C  5026               	movf	(??_eval_message+1)^0,w,c
  3693  001F8E  202A               	addwfc	(??_eval_message+5)^0,w,c
  3694  001F90  6EDA               	movwf	fsr2h,c
  3695  001F92  50DE               	movf	postinc2,w,c
  3696  001F94  10DE               	iorwf	postinc2,w,c
  3697  001F96  A4D8               	btfss	status,2,c
  3698  001F98  EFD0  F00F         	goto	u3211
  3699  001F9C  EFD2  F00F         	goto	u3210
  3700  001FA0                     u3211:
  3701  001FA0  EF91  F010         	goto	l3332
  3702  001FA4                     u3210:
  3703  001FA4                     
  3704                           ; BSR set to: 0
  3705  001FA4  C0A7  F025         	movff	eval_message@slot_no,??_eval_message
  3706  001FA8  C0A8  F026         	movff	eval_message@slot_no+1,??_eval_message+1
  3707  001FAC  90D8               	bcf	status,0,c
  3708  001FAE  3625               	rlcf	??_eval_message^0,f,c
  3709  001FB0  3626               	rlcf	(??_eval_message+1)^0,f,c
  3710  001FB2  90D8               	bcf	status,0,c
  3711  001FB4  3625               	rlcf	??_eval_message^0,f,c
  3712  001FB6  3626               	rlcf	(??_eval_message+1)^0,f,c
  3713  001FB8  90D8               	bcf	status,0,c
  3714  001FBA  3625               	rlcf	??_eval_message^0,f,c
  3715  001FBC  3626               	rlcf	(??_eval_message+1)^0,f,c
  3716  001FBE  51A6               	movf	eval_message@lvl_no& (0+255),w,b
  3717  001FC0  0D53               	mullw	83
  3718  001FC2  0EF4               	movlw	244
  3719  001FC4  6E27               	movwf	(??_eval_message+2)^0,c
  3720  001FC6  0EEA               	movlw	234
  3721  001FC8  6E28               	movwf	(??_eval_message+3)^0,c
  3722  001FCA  0E00               	movlw	low _park
  3723  001FCC  6E29               	movwf	(??_eval_message+4)^0,c
  3724  001FCE  0E03               	movlw	high _park
  3725  001FD0  6E2A               	movwf	(??_eval_message+5)^0,c
  3726  001FD2  5027               	movf	(??_eval_message+2)^0,w,c
  3727  001FD4  2629               	addwf	(??_eval_message+4)^0,f,c
  3728  001FD6  5028               	movf	(??_eval_message+3)^0,w,c
  3729  001FD8  222A               	addwfc	(??_eval_message+5)^0,f,c
  3730  001FDA  50F3               	movf	243,w,c
  3731  001FDC  2629               	addwf	(??_eval_message+4)^0,f,c
  3732  001FDE  50F4               	movf	244,w,c
  3733  001FE0  222A               	addwfc	(??_eval_message+5)^0,f,c
  3734  001FE2  5025               	movf	??_eval_message^0,w,c
  3735  001FE4  2429               	addwf	(??_eval_message+4)^0,w,c
  3736  001FE6  6ED9               	movwf	fsr2l,c
  3737  001FE8  5026               	movf	(??_eval_message+1)^0,w,c
  3738  001FEA  202A               	addwfc	(??_eval_message+5)^0,w,c
  3739  001FEC  6EDA               	movwf	fsr2h,c
  3740  001FEE  50DE               	movf	postinc2,w,c
  3741  001FF0  10DE               	iorwf	postinc2,w,c
  3742  001FF2  A4D8               	btfss	status,2,c
  3743  001FF4  EFFE  F00F         	goto	u3221
  3744  001FF8  EF00  F010         	goto	u3220
  3745  001FFC                     u3221:
  3746  001FFC  EF91  F010         	goto	l3332
  3747  002000                     u3220:
  3748  002000                     
  3749                           ; BSR set to: 0
  3750  002000  C0A7  F025         	movff	eval_message@slot_no,??_eval_message
  3751  002004  C0A8  F026         	movff	eval_message@slot_no+1,??_eval_message+1
  3752  002008  90D8               	bcf	status,0,c
  3753  00200A  3625               	rlcf	??_eval_message^0,f,c
  3754  00200C  3626               	rlcf	(??_eval_message+1)^0,f,c
  3755  00200E  90D8               	bcf	status,0,c
  3756  002010  3625               	rlcf	??_eval_message^0,f,c
  3757  002012  3626               	rlcf	(??_eval_message+1)^0,f,c
  3758  002014  90D8               	bcf	status,0,c
  3759  002016  3625               	rlcf	??_eval_message^0,f,c
  3760  002018  3626               	rlcf	(??_eval_message+1)^0,f,c
  3761  00201A  51A6               	movf	eval_message@lvl_no& (0+255),w,b
  3762  00201C  0D53               	mullw	83
  3763  00201E  0EF6               	movlw	246
  3764  002020  6E27               	movwf	(??_eval_message+2)^0,c
  3765  002022  0EEA               	movlw	234
  3766  002024  6E28               	movwf	(??_eval_message+3)^0,c
  3767  002026  0E00               	movlw	low _park
  3768  002028  6E29               	movwf	(??_eval_message+4)^0,c
  3769  00202A  0E03               	movlw	high _park
  3770  00202C  6E2A               	movwf	(??_eval_message+5)^0,c
  3771  00202E  5027               	movf	(??_eval_message+2)^0,w,c
  3772  002030  2629               	addwf	(??_eval_message+4)^0,f,c
  3773  002032  5028               	movf	(??_eval_message+3)^0,w,c
  3774  002034  222A               	addwfc	(??_eval_message+5)^0,f,c
  3775  002036  50F3               	movf	243,w,c
  3776  002038  2629               	addwf	(??_eval_message+4)^0,f,c
  3777  00203A  50F4               	movf	244,w,c
  3778  00203C  222A               	addwfc	(??_eval_message+5)^0,f,c
  3779  00203E  5025               	movf	??_eval_message^0,w,c
  3780  002040  2429               	addwf	(??_eval_message+4)^0,w,c
  3781  002042  6ED9               	movwf	fsr2l,c
  3782  002044  5026               	movf	(??_eval_message+1)^0,w,c
  3783  002046  202A               	addwfc	(??_eval_message+5)^0,w,c
  3784  002048  6EDA               	movwf	fsr2h,c
  3785  00204A  50DE               	movf	postinc2,w,c
  3786  00204C  10DE               	iorwf	postinc2,w,c
  3787  00204E  A4D8               	btfss	status,2,c
  3788  002050  EF2C  F010         	goto	u3231
  3789  002054  EF2E  F010         	goto	u3230
  3790  002058                     u3231:
  3791  002058  EF91  F010         	goto	l3332
  3792  00205C                     u3230:
  3793  00205C                     
  3794                           ; BSR set to: 0
  3795                           ;main.c: 528:             park.floors[lvl_no - 'A'].slots[slot_no].subscribe = 1;
  3796  00205C  C0A7  F025         	movff	eval_message@slot_no,??_eval_message
  3797  002060  C0A8  F026         	movff	eval_message@slot_no+1,??_eval_message+1
  3798  002064  90D8               	bcf	status,0,c
  3799  002066  3625               	rlcf	??_eval_message^0,f,c
  3800  002068  3626               	rlcf	(??_eval_message+1)^0,f,c
  3801  00206A  90D8               	bcf	status,0,c
  3802  00206C  3625               	rlcf	??_eval_message^0,f,c
  3803  00206E  3626               	rlcf	(??_eval_message+1)^0,f,c
  3804  002070  90D8               	bcf	status,0,c
  3805  002072  3625               	rlcf	??_eval_message^0,f,c
  3806  002074  3626               	rlcf	(??_eval_message+1)^0,f,c
  3807  002076  51A6               	movf	eval_message@lvl_no& (0+255),w,b
  3808  002078  0D53               	mullw	83
  3809  00207A  0EF2               	movlw	242
  3810  00207C  6E27               	movwf	(??_eval_message+2)^0,c
  3811  00207E  0EEA               	movlw	234
  3812  002080  6E28               	movwf	(??_eval_message+3)^0,c
  3813  002082  0E00               	movlw	low _park
  3814  002084  6E29               	movwf	(??_eval_message+4)^0,c
  3815  002086  0E03               	movlw	high _park
  3816  002088  6E2A               	movwf	(??_eval_message+5)^0,c
  3817  00208A  5027               	movf	(??_eval_message+2)^0,w,c
  3818  00208C  2629               	addwf	(??_eval_message+4)^0,f,c
  3819  00208E  5028               	movf	(??_eval_message+3)^0,w,c
  3820  002090  222A               	addwfc	(??_eval_message+5)^0,f,c
  3821  002092  50F3               	movf	243,w,c
  3822  002094  2629               	addwf	(??_eval_message+4)^0,f,c
  3823  002096  50F4               	movf	244,w,c
  3824  002098  222A               	addwfc	(??_eval_message+5)^0,f,c
  3825  00209A  5025               	movf	??_eval_message^0,w,c
  3826  00209C  2429               	addwf	(??_eval_message+4)^0,w,c
  3827  00209E  6ED9               	movwf	fsr2l,c
  3828  0020A0  5026               	movf	(??_eval_message+1)^0,w,c
  3829  0020A2  202A               	addwfc	(??_eval_message+5)^0,w,c
  3830  0020A4  6EDA               	movwf	fsr2h,c
  3831  0020A6  0E01               	movlw	1
  3832  0020A8  6EDE               	movwf	postinc2,c
  3833  0020AA  0E00               	movlw	0
  3834  0020AC  6EDD               	movwf	postdec2,c
  3835                           
  3836                           ;main.c: 529:             park.floors[lvl_no - 'A'].slots[slot_no].id = id;
  3837  0020AE  C0A7  F025         	movff	eval_message@slot_no,??_eval_message
  3838  0020B2  C0A8  F026         	movff	eval_message@slot_no+1,??_eval_message+1
  3839  0020B6  90D8               	bcf	status,0,c
  3840  0020B8  3625               	rlcf	??_eval_message^0,f,c
  3841  0020BA  3626               	rlcf	(??_eval_message+1)^0,f,c
  3842  0020BC  90D8               	bcf	status,0,c
  3843  0020BE  3625               	rlcf	??_eval_message^0,f,c
  3844  0020C0  3626               	rlcf	(??_eval_message+1)^0,f,c
  3845  0020C2  90D8               	bcf	status,0,c
  3846  0020C4  3625               	rlcf	??_eval_message^0,f,c
  3847  0020C6  3626               	rlcf	(??_eval_message+1)^0,f,c
  3848  0020C8  51A6               	movf	eval_message@lvl_no& (0+255),w,b
  3849  0020CA  0D53               	mullw	83
  3850  0020CC  0EF0               	movlw	240
  3851  0020CE  6E27               	movwf	(??_eval_message+2)^0,c
  3852  0020D0  0EEA               	movlw	234
  3853  0020D2  6E28               	movwf	(??_eval_message+3)^0,c
  3854  0020D4  0E00               	movlw	low _park
  3855  0020D6  6E29               	movwf	(??_eval_message+4)^0,c
  3856  0020D8  0E03               	movlw	high _park
  3857  0020DA  6E2A               	movwf	(??_eval_message+5)^0,c
  3858  0020DC  5027               	movf	(??_eval_message+2)^0,w,c
  3859  0020DE  2629               	addwf	(??_eval_message+4)^0,f,c
  3860  0020E0  5028               	movf	(??_eval_message+3)^0,w,c
  3861  0020E2  222A               	addwfc	(??_eval_message+5)^0,f,c
  3862  0020E4  50F3               	movf	243,w,c
  3863  0020E6  2629               	addwf	(??_eval_message+4)^0,f,c
  3864  0020E8  50F4               	movf	244,w,c
  3865  0020EA  222A               	addwfc	(??_eval_message+5)^0,f,c
  3866  0020EC  5025               	movf	??_eval_message^0,w,c
  3867  0020EE  2429               	addwf	(??_eval_message+4)^0,w,c
  3868  0020F0  6ED9               	movwf	fsr2l,c
  3869  0020F2  5026               	movf	(??_eval_message+1)^0,w,c
  3870  0020F4  202A               	addwfc	(??_eval_message+5)^0,w,c
  3871  0020F6  6EDA               	movwf	fsr2h,c
  3872  0020F8  C0A2  FFDE         	movff	eval_message@id_691,postinc2
  3873  0020FC  C0A3  FFDD         	movff	eval_message@id_691+1,postdec2
  3874  002100                     
  3875                           ; BSR set to: 0
  3876                           ;main.c: 530:             buf_push('5', OUTBUF);
  3877  002100  0E01               	movlw	1
  3878  002102  6E1D               	movwf	buf_push@buf^0,c
  3879  002104  0E35               	movlw	53
  3880  002106  EC41  F019         	call	_buf_push
  3881  00210A                     
  3882                           ;main.c: 531:             buf_push('0', OUTBUF);
  3883  00210A  0E01               	movlw	1
  3884  00210C  6E1D               	movwf	buf_push@buf^0,c
  3885  00210E  0E30               	movlw	48
  3886  002110  EC41  F019         	call	_buf_push
  3887  002114                     
  3888                           ;main.c: 532:             total_score += 50;
  3889  002114  0E32               	movlw	50
  3890  002116  0100               	movlb	0	; () banked
  3891  002118  278A               	addwf	_total_score& (0+255),f,b
  3892  00211A  0E00               	movlw	0
  3893  00211C  238B               	addwfc	(_total_score+1)& (0+255),f,b
  3894                           
  3895                           ;main.c: 533:         } else {
  3896  00211E  EF9B  F010         	goto	l270
  3897  002122                     l3332:
  3898                           
  3899                           ; BSR set to: 0
  3900                           ;main.c: 534:             buf_push('0', OUTBUF);
  3901  002122  0E01               	movlw	1
  3902  002124  6E1D               	movwf	buf_push@buf^0,c
  3903  002126  0E30               	movlw	48
  3904  002128  EC41  F019         	call	_buf_push
  3905                           
  3906                           ;main.c: 535:             buf_push('0', OUTBUF);
  3907  00212C  0E01               	movlw	1
  3908  00212E  6E1D               	movwf	buf_push@buf^0,c
  3909  002130  0E30               	movlw	48
  3910  002132  EC41  F019         	call	_buf_push
  3911  002136                     l270:
  3912                           
  3913                           ;main.c: 537:         buf_push('#', OUTBUF);
  3914  002136  0E01               	movlw	1
  3915  002138  6E1D               	movwf	buf_push@buf^0,c
  3916  00213A  0E23               	movlw	35
  3917  00213C  EC41  F019         	call	_buf_push
  3918  002140  EFB9  F009         	goto	l3094
  3919  002144                     l228:
  3920  002144  0012               	return		;funcret
  3921  002146                     __end_of_eval_message:
  3922                           	callstack 0
  3923                           
  3924 ;; *************** function _is_same *****************
  3925 ;; Defined at:
  3926 ;;		line 284 in file "main.c"
  3927 ;; Parameters:    Size  Location     Type
  3928 ;;  a               2   14[COMRAM] PTR const unsigned char 
  3929 ;;		 -> buffer(20), 
  3930 ;;  b               2   16[COMRAM] PTR const unsigned char 
  3931 ;;		 -> STR_10(4), STR_8(4), STR_6(4), STR_4(4), 
  3932 ;;		 -> STR_2(3), 
  3933 ;;  n               2   18[COMRAM] int 
  3934 ;; Auto vars:     Size  Location     Type
  3935 ;;  k               2   23[COMRAM] int 
  3936 ;; Return value:  Size  Location     Type
  3937 ;;                  2   14[COMRAM] int 
  3938 ;; Registers used:
  3939 ;;		wreg, fsr2l, fsr2h, status,2, status,0, tblptrl, tblptrh, tblptru
  3940 ;; Tracked objects:
  3941 ;;		On entry : 0/0
  3942 ;;		On exit  : 0/0
  3943 ;;		Unchanged: 0/0
  3944 ;; Data sizes:     COMRAM   BANK0   BANK1   BANK2   BANK3   BANK4   BANK5   BANK6   BANK7   BANK8   BANK9  BANK10  BANK1
      +1  BANK12  BANK13  BANK14  BANK15
  3945 ;;      Params:         6       0       0       0       0       0       0       0       0       0       0       0       
      +0       0       0       0       0
  3946 ;;      Locals:         2       0       0       0       0       0       0       0       0       0       0       0       
      +0       0       0       0       0
  3947 ;;      Temps:          3       0       0       0       0       0       0       0       0       0       0       0       
      +0       0       0       0       0
  3948 ;;      Totals:        11       0       0       0       0       0       0       0       0       0       0       0       
      +0       0       0       0       0
  3949 ;;Total ram usage:       11 bytes
  3950 ;; Hardware stack levels used:    1
  3951 ;; Hardware stack levels required when called:    3
  3952 ;; This function calls:
  3953 ;;		Nothing
  3954 ;; This function is called by:
  3955 ;;		_eval_message
  3956 ;; This function uses a non-reentrant model
  3957 ;;
  3958                           
  3959                           	psect	text6
  3960  003206                     __ptext6:
  3961                           	callstack 0
  3962  003206                     _is_same:
  3963                           	callstack 25
  3964  003206                     
  3965                           ;main.c: 285:     for (int k = 0; k < n; k++) {
  3966  003206  0E00               	movlw	0
  3967  003208  6E19               	movwf	(is_same@k+1)^0,c
  3968  00320A  0E00               	movlw	0
  3969  00320C  6E18               	movwf	is_same@k^0,c
  3970  00320E  EF2D  F019         	goto	l2928
  3971  003212                     l2920:
  3972                           
  3973                           ;main.c: 286:         if (a[k] != b[k]) return 0;
  3974  003212  5018               	movf	is_same@k^0,w,c
  3975  003214  240F               	addwf	is_same@a^0,w,c
  3976  003216  6ED9               	movwf	fsr2l,c
  3977  003218  5019               	movf	(is_same@k+1)^0,w,c
  3978  00321A  2010               	addwfc	(is_same@a+1)^0,w,c
  3979  00321C  6EDA               	movwf	fsr2h,c
  3980  00321E  50DF               	movf	indf2,w,c
  3981  003220  6E15               	movwf	??_is_same^0,c
  3982  003222  5018               	movf	is_same@k^0,w,c
  3983  003224  2411               	addwf	is_same@b^0,w,c
  3984  003226  6E16               	movwf	(??_is_same+1)^0,c
  3985  003228  5019               	movf	(is_same@k+1)^0,w,c
  3986  00322A  2012               	addwfc	(is_same@b+1)^0,w,c
  3987  00322C  6E17               	movwf	(??_is_same+2)^0,c
  3988  00322E  C016  FFF6         	movff	??_is_same+1,tblptrl
  3989  003232  C017  FFF7         	movff	??_is_same+2,tblptrh
  3990  003236                     	if	0	;tblptru may be non-zero
  3991  003236                     	endif
  3992  003236                     	if	0	;tblptru may be non-zero
  3993  003236                     	endif
  3994  003236  0008               	tblrd		*
  3995  003238  50F5               	movf	tablat,w,c
  3996  00323A  1815               	xorwf	??_is_same^0,w,c
  3997  00323C  B4D8               	btfsc	status,2,c
  3998  00323E  EF23  F019         	goto	u2641
  3999  003242  EF25  F019         	goto	u2640
  4000  003246                     u2641:
  4001  003246  EF2B  F019         	goto	l2926
  4002  00324A                     u2640:
  4003  00324A  0E00               	movlw	0
  4004  00324C  6E10               	movwf	(?_is_same+1)^0,c
  4005  00324E  0E00               	movlw	0
  4006  003250  6E0F               	movwf	?_is_same^0,c
  4007  003252  EF40  F019         	goto	l194
  4008  003256                     l2926:
  4009                           
  4010                           ;main.c: 287:     }
  4011  003256  4A18               	infsnz	is_same@k^0,f,c
  4012  003258  2A19               	incf	(is_same@k+1)^0,f,c
  4013  00325A                     l2928:
  4014  00325A  5013               	movf	is_same@n^0,w,c
  4015  00325C  5C18               	subwf	is_same@k^0,w,c
  4016  00325E  5019               	movf	(is_same@k+1)^0,w,c
  4017  003260  0A80               	xorlw	128
  4018  003262  6E15               	movwf	??_is_same^0,c
  4019  003264  5014               	movf	(is_same@n+1)^0,w,c
  4020  003266  0A80               	xorlw	128
  4021  003268  5815               	subwfb	??_is_same^0,w,c
  4022  00326A  A0D8               	btfss	status,0,c
  4023  00326C  EF3A  F019         	goto	u2651
  4024  003270  EF3C  F019         	goto	u2650
  4025  003274                     u2651:
  4026  003274  EF09  F019         	goto	l2920
  4027  003278                     u2650:
  4028  003278                     
  4029                           ;main.c: 288:     return 1;
  4030  003278  0E00               	movlw	0
  4031  00327A  6E10               	movwf	(?_is_same+1)^0,c
  4032  00327C  0E01               	movlw	1
  4033  00327E  6E0F               	movwf	?_is_same^0,c
  4034  003280                     l194:
  4035  003280  0012               	return		;funcret
  4036  003282                     __end_of_is_same:
  4037                           	callstack 0
  4038                           
  4039 ;; *************** function _find_subscribed *****************
  4040 ;; Defined at:
  4041 ;;		line 145 in file "main.c"
  4042 ;; Parameters:    Size  Location     Type
  4043 ;;  level           2   20[COMRAM] PTR unsigned char 
  4044 ;;		 -> eval_message@tmp_lvl(1), 
  4045 ;;  slot            2   22[COMRAM] PTR int 
  4046 ;;		 -> eval_message@tmp_slot(2), 
  4047 ;;  id              2   24[COMRAM] int 
  4048 ;; Auto vars:     Size  Location     Type
  4049 ;;  j               2   34[COMRAM] int 
  4050 ;;  k               2   32[COMRAM] int 
  4051 ;; Return value:  Size  Location     Type
  4052 ;;                  2   20[COMRAM] int 
  4053 ;; Registers used:
  4054 ;;		wreg, fsr1l, fsr1h, fsr2l, fsr2h, status,2, status,0, prodl, prodh, cstack
  4055 ;; Tracked objects:
  4056 ;;		On entry : 0/0
  4057 ;;		On exit  : 0/0
  4058 ;;		Unchanged: 0/0
  4059 ;; Data sizes:     COMRAM   BANK0   BANK1   BANK2   BANK3   BANK4   BANK5   BANK6   BANK7   BANK8   BANK9  BANK10  BANK1
      +1  BANK12  BANK13  BANK14  BANK15
  4060 ;;      Params:         6       0       0       0       0       0       0       0       0       0       0       0       
      +0       0       0       0       0
  4061 ;;      Locals:         4       0       0       0       0       0       0       0       0       0       0       0       
      +0       0       0       0       0
  4062 ;;      Temps:          6       0       0       0       0       0       0       0       0       0       0       0       
      +0       0       0       0       0
  4063 ;;      Totals:        16       0       0       0       0       0       0       0       0       0       0       0       
      +0       0       0       0       0
  4064 ;;Total ram usage:       16 bytes
  4065 ;; Hardware stack levels used:    1
  4066 ;; Hardware stack levels required when called:    4
  4067 ;; This function calls:
  4068 ;;		___wmul
  4069 ;; This function is called by:
  4070 ;;		_eval_message
  4071 ;; This function uses a non-reentrant model
  4072 ;;
  4073                           
  4074                           	psect	text7
  4075  00267C                     __ptext7:
  4076                           	callstack 0
  4077  00267C                     _find_subscribed:
  4078                           	callstack 24
  4079  00267C                     
  4080                           ;main.c: 146:     for(int k = 0; k < 4; k++){
  4081  00267C  0E00               	movlw	0
  4082  00267E  6E22               	movwf	(find_subscribed@k+1)^0,c
  4083  002680  0E00               	movlw	0
  4084  002682  6E21               	movwf	find_subscribed@k^0,c
  4085  002684                     l2822:
  4086                           
  4087                           ;main.c: 147:         for(int j = 0; j < 10; j++){
  4088  002684  0E00               	movlw	0
  4089  002686  6E24               	movwf	(find_subscribed@j+1)^0,c
  4090  002688  0E00               	movlw	0
  4091  00268A  6E23               	movwf	find_subscribed@j^0,c
  4092  00268C                     l2828:
  4093                           
  4094                           ;main.c: 148:             if(park.floors[k].slots[j].id == id && park.floors[k].slots[j]
      +                          .subscribe == 1){
  4095  00268C  C023  F01B         	movff	find_subscribed@j,??_find_subscribed
  4096  002690  C024  F01C         	movff	find_subscribed@j+1,??_find_subscribed+1
  4097  002694  90D8               	bcf	status,0,c
  4098  002696  361B               	rlcf	??_find_subscribed^0,f,c
  4099  002698  361C               	rlcf	(??_find_subscribed+1)^0,f,c
  4100  00269A  90D8               	bcf	status,0,c
  4101  00269C  361B               	rlcf	??_find_subscribed^0,f,c
  4102  00269E  361C               	rlcf	(??_find_subscribed+1)^0,f,c
  4103  0026A0  90D8               	bcf	status,0,c
  4104  0026A2  361B               	rlcf	??_find_subscribed^0,f,c
  4105  0026A4  361C               	rlcf	(??_find_subscribed+1)^0,f,c
  4106  0026A6  C021  F00F         	movff	find_subscribed@k,___wmul@multiplier
  4107  0026AA  C022  F010         	movff	find_subscribed@k+1,___wmul@multiplier+1
  4108  0026AE  0E00               	movlw	0
  4109  0026B0  6E12               	movwf	(___wmul@multiplicand+1)^0,c
  4110  0026B2  0E53               	movlw	83
  4111  0026B4  6E11               	movwf	___wmul@multiplicand^0,c
  4112  0026B6  EC84  F01A         	call	___wmul	;wreg free
  4113  0026BA  0E00               	movlw	low _park
  4114  0026BC  6E1D               	movwf	(??_find_subscribed+2)^0,c
  4115  0026BE  0E03               	movlw	high _park
  4116  0026C0  6E1E               	movwf	(??_find_subscribed+3)^0,c
  4117  0026C2  0E03               	movlw	3
  4118  0026C4  261D               	addwf	(??_find_subscribed+2)^0,f,c
  4119  0026C6  0E00               	movlw	0
  4120  0026C8  221E               	addwfc	(??_find_subscribed+3)^0,f,c
  4121  0026CA  500F               	movf	?___wmul^0,w,c
  4122  0026CC  261D               	addwf	(??_find_subscribed+2)^0,f,c
  4123  0026CE  5010               	movf	(?___wmul+1)^0,w,c
  4124  0026D0  221E               	addwfc	(??_find_subscribed+3)^0,f,c
  4125  0026D2  501B               	movf	??_find_subscribed^0,w,c
  4126  0026D4  241D               	addwf	(??_find_subscribed+2)^0,w,c
  4127  0026D6  6ED9               	movwf	fsr2l,c
  4128  0026D8  501C               	movf	(??_find_subscribed+1)^0,w,c
  4129  0026DA  201E               	addwfc	(??_find_subscribed+3)^0,w,c
  4130  0026DC  6EDA               	movwf	fsr2h,c
  4131  0026DE  5019               	movf	find_subscribed@id^0,w,c
  4132  0026E0  18DE               	xorwf	postinc2,w,c
  4133  0026E2  E107               	bnz	u2521
  4134  0026E4  501A               	movf	(find_subscribed@id+1)^0,w,c
  4135  0026E6  18DE               	xorwf	postinc2,w,c
  4136  0026E8  A4D8               	btfss	status,2,c
  4137  0026EA  EF79  F013         	goto	u2521
  4138  0026EE  EF7B  F013         	goto	u2520
  4139  0026F2                     u2521:
  4140  0026F2  EFD1  F013         	goto	l2840
  4141  0026F6                     u2520:
  4142  0026F6  C023  F01B         	movff	find_subscribed@j,??_find_subscribed
  4143  0026FA  C024  F01C         	movff	find_subscribed@j+1,??_find_subscribed+1
  4144  0026FE  90D8               	bcf	status,0,c
  4145  002700  361B               	rlcf	??_find_subscribed^0,f,c
  4146  002702  361C               	rlcf	(??_find_subscribed+1)^0,f,c
  4147  002704  90D8               	bcf	status,0,c
  4148  002706  361B               	rlcf	??_find_subscribed^0,f,c
  4149  002708  361C               	rlcf	(??_find_subscribed+1)^0,f,c
  4150  00270A  90D8               	bcf	status,0,c
  4151  00270C  361B               	rlcf	??_find_subscribed^0,f,c
  4152  00270E  361C               	rlcf	(??_find_subscribed+1)^0,f,c
  4153  002710  C021  F00F         	movff	find_subscribed@k,___wmul@multiplier
  4154  002714  C022  F010         	movff	find_subscribed@k+1,___wmul@multiplier+1
  4155  002718  0E00               	movlw	0
  4156  00271A  6E12               	movwf	(___wmul@multiplicand+1)^0,c
  4157  00271C  0E53               	movlw	83
  4158  00271E  6E11               	movwf	___wmul@multiplicand^0,c
  4159  002720  EC84  F01A         	call	___wmul	;wreg free
  4160  002724  0E00               	movlw	low _park
  4161  002726  6E1D               	movwf	(??_find_subscribed+2)^0,c
  4162  002728  0E03               	movlw	high _park
  4163  00272A  6E1E               	movwf	(??_find_subscribed+3)^0,c
  4164  00272C  0E05               	movlw	5
  4165  00272E  261D               	addwf	(??_find_subscribed+2)^0,f,c
  4166  002730  0E00               	movlw	0
  4167  002732  221E               	addwfc	(??_find_subscribed+3)^0,f,c
  4168  002734  500F               	movf	?___wmul^0,w,c
  4169  002736  261D               	addwf	(??_find_subscribed+2)^0,f,c
  4170  002738  5010               	movf	(?___wmul+1)^0,w,c
  4171  00273A  221E               	addwfc	(??_find_subscribed+3)^0,f,c
  4172  00273C  501B               	movf	??_find_subscribed^0,w,c
  4173  00273E  241D               	addwf	(??_find_subscribed+2)^0,w,c
  4174  002740  6ED9               	movwf	fsr2l,c
  4175  002742  501C               	movf	(??_find_subscribed+1)^0,w,c
  4176  002744  201E               	addwfc	(??_find_subscribed+3)^0,w,c
  4177  002746  6EDA               	movwf	fsr2h,c
  4178  002748  04DE               	decf	postinc2,w,c
  4179  00274A  10DE               	iorwf	postinc2,w,c
  4180  00274C  A4D8               	btfss	status,2,c
  4181  00274E  EFAB  F013         	goto	u2531
  4182  002752  EFAD  F013         	goto	u2530
  4183  002756                     u2531:
  4184  002756  EFD1  F013         	goto	l2840
  4185  00275A                     u2530:
  4186  00275A                     
  4187                           ;main.c: 149:                 *level = park.floors[k].level;
  4188  00275A  C021  F00F         	movff	find_subscribed@k,___wmul@multiplier
  4189  00275E  C022  F010         	movff	find_subscribed@k+1,___wmul@multiplier+1
  4190  002762  0E00               	movlw	0
  4191  002764  6E12               	movwf	(___wmul@multiplicand+1)^0,c
  4192  002766  0E53               	movlw	83
  4193  002768  6E11               	movwf	___wmul@multiplicand^0,c
  4194  00276A  EC84  F01A         	call	___wmul	;wreg free
  4195  00276E  0E02               	movlw	low (_park+2)
  4196  002770  240F               	addwf	?___wmul^0,w,c
  4197  002772  6ED9               	movwf	fsr2l,c
  4198  002774  0E03               	movlw	high (_park+2)
  4199  002776  2010               	addwfc	(?___wmul+1)^0,w,c
  4200  002778  6EDA               	movwf	fsr2h,c
  4201  00277A  C015  FFE1         	movff	find_subscribed@level,fsr1l
  4202  00277E  C016  FFE2         	movff	find_subscribed@level+1,fsr1h
  4203  002782  CFDF FFE7          	movff	indf2,indf1
  4204  002786                     
  4205                           ;main.c: 150:                 *slot = j;
  4206  002786  C017  FFD9         	movff	find_subscribed@slot,fsr2l
  4207  00278A  C018  FFDA         	movff	find_subscribed@slot+1,fsr2h
  4208  00278E  C023  FFDE         	movff	find_subscribed@j,postinc2
  4209  002792  C024  FFDD         	movff	find_subscribed@j+1,postdec2
  4210  002796                     
  4211                           ;main.c: 151:                 return 1;
  4212  002796  0E00               	movlw	0
  4213  002798  6E16               	movwf	(?_find_subscribed+1)^0,c
  4214  00279A  0E01               	movlw	1
  4215  00279C  6E15               	movwf	?_find_subscribed^0,c
  4216  00279E  EFF5  F013         	goto	l138
  4217  0027A2                     l2840:
  4218                           
  4219                           ;main.c: 153:         }
  4220  0027A2  4A23               	infsnz	find_subscribed@j^0,f,c
  4221  0027A4  2A24               	incf	(find_subscribed@j+1)^0,f,c
  4222  0027A6  BE24               	btfsc	(find_subscribed@j+1)^0,7,c
  4223  0027A8  EFDF  F013         	goto	u2541
  4224  0027AC  5024               	movf	(find_subscribed@j+1)^0,w,c
  4225  0027AE  E109               	bnz	u2540
  4226  0027B0  0E0A               	movlw	10
  4227  0027B2  5C23               	subwf	find_subscribed@j^0,w,c
  4228  0027B4  A0D8               	btfss	status,0,c
  4229  0027B6  EFDF  F013         	goto	u2541
  4230  0027BA  EFE1  F013         	goto	u2540
  4231  0027BE                     u2541:
  4232  0027BE  EF46  F013         	goto	l2828
  4233  0027C2                     u2540:
  4234  0027C2                     
  4235                           ;main.c: 154:     }
  4236  0027C2  4A21               	infsnz	find_subscribed@k^0,f,c
  4237  0027C4  2A22               	incf	(find_subscribed@k+1)^0,f,c
  4238  0027C6  BE22               	btfsc	(find_subscribed@k+1)^0,7,c
  4239  0027C8  EFEF  F013         	goto	u2551
  4240  0027CC  5022               	movf	(find_subscribed@k+1)^0,w,c
  4241  0027CE  E109               	bnz	u2550
  4242  0027D0  0E04               	movlw	4
  4243  0027D2  5C21               	subwf	find_subscribed@k^0,w,c
  4244  0027D4  A0D8               	btfss	status,0,c
  4245  0027D6  EFEF  F013         	goto	u2551
  4246  0027DA  EFF1  F013         	goto	u2550
  4247  0027DE                     u2551:
  4248  0027DE  EF42  F013         	goto	l2822
  4249  0027E2                     u2550:
  4250  0027E2                     
  4251                           ;main.c: 155:     return 0;
  4252  0027E2  0E00               	movlw	0
  4253  0027E4  6E16               	movwf	(?_find_subscribed+1)^0,c
  4254  0027E6  0E00               	movlw	0
  4255  0027E8  6E15               	movwf	?_find_subscribed^0,c
  4256  0027EA                     l138:
  4257  0027EA  0012               	return		;funcret
  4258  0027EC                     __end_of_find_subscribed:
  4259                           	callstack 0
  4260                           
  4261 ;; *************** function _find_parked *****************
  4262 ;; Defined at:
  4263 ;;		line 163 in file "main.c"
  4264 ;; Parameters:    Size  Location     Type
  4265 ;;  id              2   20[COMRAM] int 
  4266 ;;  level           2   22[COMRAM] PTR unsigned char 
  4267 ;;		 -> eval_message@tmp_lvl_687(1), 
  4268 ;;  slot            2   24[COMRAM] PTR int 
  4269 ;;		 -> eval_message@tmp_slot_686(2), 
  4270 ;; Auto vars:     Size  Location     Type
  4271 ;;  j               2   34[COMRAM] int 
  4272 ;;  k               2   32[COMRAM] int 
  4273 ;; Return value:  Size  Location     Type
  4274 ;;                  1    wreg      void 
  4275 ;; Registers used:
  4276 ;;		wreg, fsr1l, fsr1h, fsr2l, fsr2h, status,2, status,0, prodl, prodh, cstack
  4277 ;; Tracked objects:
  4278 ;;		On entry : 0/0
  4279 ;;		On exit  : 0/0
  4280 ;;		Unchanged: 0/0
  4281 ;; Data sizes:     COMRAM   BANK0   BANK1   BANK2   BANK3   BANK4   BANK5   BANK6   BANK7   BANK8   BANK9  BANK10  BANK1
      +1  BANK12  BANK13  BANK14  BANK15
  4282 ;;      Params:         6       0       0       0       0       0       0       0       0       0       0       0       
      +0       0       0       0       0
  4283 ;;      Locals:         4       0       0       0       0       0       0       0       0       0       0       0       
      +0       0       0       0       0
  4284 ;;      Temps:          6       0       0       0       0       0       0       0       0       0       0       0       
      +0       0       0       0       0
  4285 ;;      Totals:        16       0       0       0       0       0       0       0       0       0       0       0       
      +0       0       0       0       0
  4286 ;;Total ram usage:       16 bytes
  4287 ;; Hardware stack levels used:    1
  4288 ;; Hardware stack levels required when called:    4
  4289 ;; This function calls:
  4290 ;;		___wmul
  4291 ;; This function is called by:
  4292 ;;		_eval_message
  4293 ;; This function uses a non-reentrant model
  4294 ;;
  4295                           
  4296                           	psect	text8
  4297  0027EC                     __ptext8:
  4298                           	callstack 0
  4299  0027EC                     _find_parked:
  4300                           	callstack 24
  4301  0027EC                     
  4302                           ;main.c: 164:     for (int k = 0; k < 4; k++) {
  4303  0027EC  0E00               	movlw	0
  4304  0027EE  6E22               	movwf	(find_parked@k+1)^0,c
  4305  0027F0  0E00               	movlw	0
  4306  0027F2  6E21               	movwf	find_parked@k^0,c
  4307  0027F4                     l2858:
  4308                           
  4309                           ;main.c: 165:         for (int j = 0; j < 10; j++) {
  4310  0027F4  0E00               	movlw	0
  4311  0027F6  6E24               	movwf	(find_parked@j+1)^0,c
  4312  0027F8  0E00               	movlw	0
  4313  0027FA  6E23               	movwf	find_parked@j^0,c
  4314  0027FC                     l2864:
  4315                           
  4316                           ;main.c: 166:             if (park.floors[k].slots[j].id == id && park.floors[k].slots[j
      +                          ].occupied == 1) {
  4317  0027FC  C023  F01B         	movff	find_parked@j,??_find_parked
  4318  002800  C024  F01C         	movff	find_parked@j+1,??_find_parked+1
  4319  002804  90D8               	bcf	status,0,c
  4320  002806  361B               	rlcf	??_find_parked^0,f,c
  4321  002808  361C               	rlcf	(??_find_parked+1)^0,f,c
  4322  00280A  90D8               	bcf	status,0,c
  4323  00280C  361B               	rlcf	??_find_parked^0,f,c
  4324  00280E  361C               	rlcf	(??_find_parked+1)^0,f,c
  4325  002810  90D8               	bcf	status,0,c
  4326  002812  361B               	rlcf	??_find_parked^0,f,c
  4327  002814  361C               	rlcf	(??_find_parked+1)^0,f,c
  4328  002816  C021  F00F         	movff	find_parked@k,___wmul@multiplier
  4329  00281A  C022  F010         	movff	find_parked@k+1,___wmul@multiplier+1
  4330  00281E  0E00               	movlw	0
  4331  002820  6E12               	movwf	(___wmul@multiplicand+1)^0,c
  4332  002822  0E53               	movlw	83
  4333  002824  6E11               	movwf	___wmul@multiplicand^0,c
  4334  002826  EC84  F01A         	call	___wmul	;wreg free
  4335  00282A  0E00               	movlw	low _park
  4336  00282C  6E1D               	movwf	(??_find_parked+2)^0,c
  4337  00282E  0E03               	movlw	high _park
  4338  002830  6E1E               	movwf	(??_find_parked+3)^0,c
  4339  002832  0E03               	movlw	3
  4340  002834  261D               	addwf	(??_find_parked+2)^0,f,c
  4341  002836  0E00               	movlw	0
  4342  002838  221E               	addwfc	(??_find_parked+3)^0,f,c
  4343  00283A  500F               	movf	?___wmul^0,w,c
  4344  00283C  261D               	addwf	(??_find_parked+2)^0,f,c
  4345  00283E  5010               	movf	(?___wmul+1)^0,w,c
  4346  002840  221E               	addwfc	(??_find_parked+3)^0,f,c
  4347  002842  501B               	movf	??_find_parked^0,w,c
  4348  002844  241D               	addwf	(??_find_parked+2)^0,w,c
  4349  002846  6ED9               	movwf	fsr2l,c
  4350  002848  501C               	movf	(??_find_parked+1)^0,w,c
  4351  00284A  201E               	addwfc	(??_find_parked+3)^0,w,c
  4352  00284C  6EDA               	movwf	fsr2h,c
  4353  00284E  5015               	movf	find_parked@id^0,w,c
  4354  002850  18DE               	xorwf	postinc2,w,c
  4355  002852  E107               	bnz	u2561
  4356  002854  5016               	movf	(find_parked@id+1)^0,w,c
  4357  002856  18DE               	xorwf	postinc2,w,c
  4358  002858  A4D8               	btfss	status,2,c
  4359  00285A  EF31  F014         	goto	u2561
  4360  00285E  EF33  F014         	goto	u2560
  4361  002862                     u2561:
  4362  002862  EF85  F014         	goto	l2874
  4363  002866                     u2560:
  4364  002866  C023  F01B         	movff	find_parked@j,??_find_parked
  4365  00286A  C024  F01C         	movff	find_parked@j+1,??_find_parked+1
  4366  00286E  90D8               	bcf	status,0,c
  4367  002870  361B               	rlcf	??_find_parked^0,f,c
  4368  002872  361C               	rlcf	(??_find_parked+1)^0,f,c
  4369  002874  90D8               	bcf	status,0,c
  4370  002876  361B               	rlcf	??_find_parked^0,f,c
  4371  002878  361C               	rlcf	(??_find_parked+1)^0,f,c
  4372  00287A  90D8               	bcf	status,0,c
  4373  00287C  361B               	rlcf	??_find_parked^0,f,c
  4374  00287E  361C               	rlcf	(??_find_parked+1)^0,f,c
  4375  002880  C021  F00F         	movff	find_parked@k,___wmul@multiplier
  4376  002884  C022  F010         	movff	find_parked@k+1,___wmul@multiplier+1
  4377  002888  0E00               	movlw	0
  4378  00288A  6E12               	movwf	(___wmul@multiplicand+1)^0,c
  4379  00288C  0E53               	movlw	83
  4380  00288E  6E11               	movwf	___wmul@multiplicand^0,c
  4381  002890  EC84  F01A         	call	___wmul	;wreg free
  4382  002894  0E00               	movlw	low _park
  4383  002896  6E1D               	movwf	(??_find_parked+2)^0,c
  4384  002898  0E03               	movlw	high _park
  4385  00289A  6E1E               	movwf	(??_find_parked+3)^0,c
  4386  00289C  0E09               	movlw	9
  4387  00289E  261D               	addwf	(??_find_parked+2)^0,f,c
  4388  0028A0  0E00               	movlw	0
  4389  0028A2  221E               	addwfc	(??_find_parked+3)^0,f,c
  4390  0028A4  500F               	movf	?___wmul^0,w,c
  4391  0028A6  261D               	addwf	(??_find_parked+2)^0,f,c
  4392  0028A8  5010               	movf	(?___wmul+1)^0,w,c
  4393  0028AA  221E               	addwfc	(??_find_parked+3)^0,f,c
  4394  0028AC  501B               	movf	??_find_parked^0,w,c
  4395  0028AE  241D               	addwf	(??_find_parked+2)^0,w,c
  4396  0028B0  6ED9               	movwf	fsr2l,c
  4397  0028B2  501C               	movf	(??_find_parked+1)^0,w,c
  4398  0028B4  201E               	addwfc	(??_find_parked+3)^0,w,c
  4399  0028B6  6EDA               	movwf	fsr2h,c
  4400  0028B8  04DE               	decf	postinc2,w,c
  4401  0028BA  10DE               	iorwf	postinc2,w,c
  4402  0028BC  A4D8               	btfss	status,2,c
  4403  0028BE  EF63  F014         	goto	u2571
  4404  0028C2  EF65  F014         	goto	u2570
  4405  0028C6                     u2571:
  4406  0028C6  EF85  F014         	goto	l2874
  4407  0028CA                     u2570:
  4408  0028CA                     
  4409                           ;main.c: 167:                 *level = park.floors[k].level;
  4410  0028CA  C021  F00F         	movff	find_parked@k,___wmul@multiplier
  4411  0028CE  C022  F010         	movff	find_parked@k+1,___wmul@multiplier+1
  4412  0028D2  0E00               	movlw	0
  4413  0028D4  6E12               	movwf	(___wmul@multiplicand+1)^0,c
  4414  0028D6  0E53               	movlw	83
  4415  0028D8  6E11               	movwf	___wmul@multiplicand^0,c
  4416  0028DA  EC84  F01A         	call	___wmul	;wreg free
  4417  0028DE  0E02               	movlw	low (_park+2)
  4418  0028E0  240F               	addwf	?___wmul^0,w,c
  4419  0028E2  6ED9               	movwf	fsr2l,c
  4420  0028E4  0E03               	movlw	high (_park+2)
  4421  0028E6  2010               	addwfc	(?___wmul+1)^0,w,c
  4422  0028E8  6EDA               	movwf	fsr2h,c
  4423  0028EA  C017  FFE1         	movff	find_parked@level,fsr1l
  4424  0028EE  C018  FFE2         	movff	find_parked@level+1,fsr1h
  4425  0028F2  CFDF FFE7          	movff	indf2,indf1
  4426  0028F6                     
  4427                           ;main.c: 168:                 *slot = j;
  4428  0028F6  C019  FFD9         	movff	find_parked@slot,fsr2l
  4429  0028FA  C01A  FFDA         	movff	find_parked@slot+1,fsr2h
  4430  0028FE  C023  FFDE         	movff	find_parked@j,postinc2
  4431  002902  C024  FFDD         	movff	find_parked@j+1,postdec2
  4432  002906  EFA5  F014         	goto	l146
  4433  00290A                     l2874:
  4434                           
  4435                           ;main.c: 171:         }
  4436  00290A  4A23               	infsnz	find_parked@j^0,f,c
  4437  00290C  2A24               	incf	(find_parked@j+1)^0,f,c
  4438  00290E  BE24               	btfsc	(find_parked@j+1)^0,7,c
  4439  002910  EF93  F014         	goto	u2581
  4440  002914  5024               	movf	(find_parked@j+1)^0,w,c
  4441  002916  E109               	bnz	u2580
  4442  002918  0E0A               	movlw	10
  4443  00291A  5C23               	subwf	find_parked@j^0,w,c
  4444  00291C  A0D8               	btfss	status,0,c
  4445  00291E  EF93  F014         	goto	u2581
  4446  002922  EF95  F014         	goto	u2580
  4447  002926                     u2581:
  4448  002926  EFFE  F013         	goto	l2864
  4449  00292A                     u2580:
  4450  00292A                     
  4451                           ;main.c: 172:     }
  4452  00292A  4A21               	infsnz	find_parked@k^0,f,c
  4453  00292C  2A22               	incf	(find_parked@k+1)^0,f,c
  4454  00292E  BE22               	btfsc	(find_parked@k+1)^0,7,c
  4455  002930  EFA3  F014         	goto	u2591
  4456  002934  5022               	movf	(find_parked@k+1)^0,w,c
  4457  002936  E109               	bnz	u2590
  4458  002938  0E04               	movlw	4
  4459  00293A  5C21               	subwf	find_parked@k^0,w,c
  4460  00293C  A0D8               	btfss	status,0,c
  4461  00293E  EFA3  F014         	goto	u2591
  4462  002942  EFA5  F014         	goto	u2590
  4463  002946                     u2591:
  4464  002946  EFFA  F013         	goto	l2858
  4465  00294A                     u2590:
  4466  00294A                     l146:
  4467  00294A  0012               	return		;funcret
  4468  00294C                     __end_of_find_parked:
  4469                           	callstack 0
  4470                           
  4471 ;; *************** function _find_park_available_slot *****************
  4472 ;; Defined at:
  4473 ;;		line 121 in file "main.c"
  4474 ;; Parameters:    Size  Location     Type
  4475 ;;  level           2   20[COMRAM] PTR unsigned char 
  4476 ;;		 -> eval_message@tmp_lvl(1), 
  4477 ;;  slot            2   22[COMRAM] PTR int 
  4478 ;;		 -> eval_message@tmp_slot(2), 
  4479 ;;  temp_id         2   24[COMRAM] int 
  4480 ;; Auto vars:     Size  Location     Type
  4481 ;;  j               2   32[COMRAM] int 
  4482 ;;  k               2   34[COMRAM] int 
  4483 ;; Return value:  Size  Location     Type
  4484 ;;                  2   20[COMRAM] int 
  4485 ;; Registers used:
  4486 ;;		wreg, fsr1l, fsr1h, fsr2l, fsr2h, status,2, status,0, prodl, prodh, cstack
  4487 ;; Tracked objects:
  4488 ;;		On entry : 0/0
  4489 ;;		On exit  : 0/0
  4490 ;;		Unchanged: 0/0
  4491 ;; Data sizes:     COMRAM   BANK0   BANK1   BANK2   BANK3   BANK4   BANK5   BANK6   BANK7   BANK8   BANK9  BANK10  BANK1
      +1  BANK12  BANK13  BANK14  BANK15
  4492 ;;      Params:         6       0       0       0       0       0       0       0       0       0       0       0       
      +0       0       0       0       0
  4493 ;;      Locals:         4       0       0       0       0       0       0       0       0       0       0       0       
      +0       0       0       0       0
  4494 ;;      Temps:          6       0       0       0       0       0       0       0       0       0       0       0       
      +0       0       0       0       0
  4495 ;;      Totals:        16       0       0       0       0       0       0       0       0       0       0       0       
      +0       0       0       0       0
  4496 ;;Total ram usage:       16 bytes
  4497 ;; Hardware stack levels used:    1
  4498 ;; Hardware stack levels required when called:    4
  4499 ;; This function calls:
  4500 ;;		___wmul
  4501 ;; This function is called by:
  4502 ;;		_eval_message
  4503 ;; This function uses a non-reentrant model
  4504 ;;
  4505                           
  4506                           	psect	text9
  4507  002146                     __ptext9:
  4508                           	callstack 0
  4509  002146                     _find_park_available_slot:
  4510                           	callstack 24
  4511  002146                     
  4512                           ;main.c: 122:     for (int k = 0; k < 4; k++) {
  4513  002146  0E00               	movlw	0
  4514  002148  6E24               	movwf	(find_park_available_slot@k+1)^0,c
  4515  00214A  0E00               	movlw	0
  4516  00214C  6E23               	movwf	find_park_available_slot@k^0,c
  4517  00214E                     l2780:
  4518                           
  4519                           ;main.c: 123:         for (int j = 0; j < 10; j++) {
  4520  00214E  0E00               	movlw	0
  4521  002150  6E22               	movwf	(find_park_available_slot@j+1)^0,c
  4522  002152  0E00               	movlw	0
  4523  002154  6E21               	movwf	find_park_available_slot@j^0,c
  4524  002156                     l2786:
  4525                           
  4526                           ;main.c: 124:             if (park.floors[k].slots[j].entry_time == 0 && park.floors[k].
      +                          slots[j].subscribe == 0 && park.floors[k].slots[j].occupied == 0) {
  4527  002156  C021  F01B         	movff	find_park_available_slot@j,??_find_park_available_slot
  4528  00215A  C022  F01C         	movff	find_park_available_slot@j+1,??_find_park_available_slot+1
  4529  00215E  90D8               	bcf	status,0,c
  4530  002160  361B               	rlcf	??_find_park_available_slot^0,f,c
  4531  002162  361C               	rlcf	(??_find_park_available_slot+1)^0,f,c
  4532  002164  90D8               	bcf	status,0,c
  4533  002166  361B               	rlcf	??_find_park_available_slot^0,f,c
  4534  002168  361C               	rlcf	(??_find_park_available_slot+1)^0,f,c
  4535  00216A  90D8               	bcf	status,0,c
  4536  00216C  361B               	rlcf	??_find_park_available_slot^0,f,c
  4537  00216E  361C               	rlcf	(??_find_park_available_slot+1)^0,f,c
  4538  002170  C023  F00F         	movff	find_park_available_slot@k,___wmul@multiplier
  4539  002174  C024  F010         	movff	find_park_available_slot@k+1,___wmul@multiplier+1
  4540  002178  0E00               	movlw	0
  4541  00217A  6E12               	movwf	(___wmul@multiplicand+1)^0,c
  4542  00217C  0E53               	movlw	83
  4543  00217E  6E11               	movwf	___wmul@multiplicand^0,c
  4544  002180  EC84  F01A         	call	___wmul	;wreg free
  4545  002184  0E00               	movlw	low _park
  4546  002186  6E1D               	movwf	(??_find_park_available_slot+2)^0,c
  4547  002188  0E03               	movlw	high _park
  4548  00218A  6E1E               	movwf	(??_find_park_available_slot+3)^0,c
  4549  00218C  0E07               	movlw	7
  4550  00218E  261D               	addwf	(??_find_park_available_slot+2)^0,f,c
  4551  002190  0E00               	movlw	0
  4552  002192  221E               	addwfc	(??_find_park_available_slot+3)^0,f,c
  4553  002194  500F               	movf	?___wmul^0,w,c
  4554  002196  261D               	addwf	(??_find_park_available_slot+2)^0,f,c
  4555  002198  5010               	movf	(?___wmul+1)^0,w,c
  4556  00219A  221E               	addwfc	(??_find_park_available_slot+3)^0,f,c
  4557  00219C  501B               	movf	??_find_park_available_slot^0,w,c
  4558  00219E  241D               	addwf	(??_find_park_available_slot+2)^0,w,c
  4559  0021A0  6ED9               	movwf	fsr2l,c
  4560  0021A2  501C               	movf	(??_find_park_available_slot+1)^0,w,c
  4561  0021A4  201E               	addwfc	(??_find_park_available_slot+3)^0,w,c
  4562  0021A6  6EDA               	movwf	fsr2h,c
  4563  0021A8  50DE               	movf	postinc2,w,c
  4564  0021AA  10DE               	iorwf	postinc2,w,c
  4565  0021AC  A4D8               	btfss	status,2,c
  4566  0021AE  EFDB  F010         	goto	u2471
  4567  0021B2  EFDD  F010         	goto	u2470
  4568  0021B6                     u2471:
  4569  0021B6  EF04  F012         	goto	l2804
  4570  0021BA                     u2470:
  4571  0021BA  C021  F01B         	movff	find_park_available_slot@j,??_find_park_available_slot
  4572  0021BE  C022  F01C         	movff	find_park_available_slot@j+1,??_find_park_available_slot+1
  4573  0021C2  90D8               	bcf	status,0,c
  4574  0021C4  361B               	rlcf	??_find_park_available_slot^0,f,c
  4575  0021C6  361C               	rlcf	(??_find_park_available_slot+1)^0,f,c
  4576  0021C8  90D8               	bcf	status,0,c
  4577  0021CA  361B               	rlcf	??_find_park_available_slot^0,f,c
  4578  0021CC  361C               	rlcf	(??_find_park_available_slot+1)^0,f,c
  4579  0021CE  90D8               	bcf	status,0,c
  4580  0021D0  361B               	rlcf	??_find_park_available_slot^0,f,c
  4581  0021D2  361C               	rlcf	(??_find_park_available_slot+1)^0,f,c
  4582  0021D4  C023  F00F         	movff	find_park_available_slot@k,___wmul@multiplier
  4583  0021D8  C024  F010         	movff	find_park_available_slot@k+1,___wmul@multiplier+1
  4584  0021DC  0E00               	movlw	0
  4585  0021DE  6E12               	movwf	(___wmul@multiplicand+1)^0,c
  4586  0021E0  0E53               	movlw	83
  4587  0021E2  6E11               	movwf	___wmul@multiplicand^0,c
  4588  0021E4  EC84  F01A         	call	___wmul	;wreg free
  4589  0021E8  0E00               	movlw	low _park
  4590  0021EA  6E1D               	movwf	(??_find_park_available_slot+2)^0,c
  4591  0021EC  0E03               	movlw	high _park
  4592  0021EE  6E1E               	movwf	(??_find_park_available_slot+3)^0,c
  4593  0021F0  0E05               	movlw	5
  4594  0021F2  261D               	addwf	(??_find_park_available_slot+2)^0,f,c
  4595  0021F4  0E00               	movlw	0
  4596  0021F6  221E               	addwfc	(??_find_park_available_slot+3)^0,f,c
  4597  0021F8  500F               	movf	?___wmul^0,w,c
  4598  0021FA  261D               	addwf	(??_find_park_available_slot+2)^0,f,c
  4599  0021FC  5010               	movf	(?___wmul+1)^0,w,c
  4600  0021FE  221E               	addwfc	(??_find_park_available_slot+3)^0,f,c
  4601  002200  501B               	movf	??_find_park_available_slot^0,w,c
  4602  002202  241D               	addwf	(??_find_park_available_slot+2)^0,w,c
  4603  002204  6ED9               	movwf	fsr2l,c
  4604  002206  501C               	movf	(??_find_park_available_slot+1)^0,w,c
  4605  002208  201E               	addwfc	(??_find_park_available_slot+3)^0,w,c
  4606  00220A  6EDA               	movwf	fsr2h,c
  4607  00220C  50DE               	movf	postinc2,w,c
  4608  00220E  10DE               	iorwf	postinc2,w,c
  4609  002210  A4D8               	btfss	status,2,c
  4610  002212  EF0D  F011         	goto	u2481
  4611  002216  EF0F  F011         	goto	u2480
  4612  00221A                     u2481:
  4613  00221A  EF04  F012         	goto	l2804
  4614  00221E                     u2480:
  4615  00221E  C021  F01B         	movff	find_park_available_slot@j,??_find_park_available_slot
  4616  002222  C022  F01C         	movff	find_park_available_slot@j+1,??_find_park_available_slot+1
  4617  002226  90D8               	bcf	status,0,c
  4618  002228  361B               	rlcf	??_find_park_available_slot^0,f,c
  4619  00222A  361C               	rlcf	(??_find_park_available_slot+1)^0,f,c
  4620  00222C  90D8               	bcf	status,0,c
  4621  00222E  361B               	rlcf	??_find_park_available_slot^0,f,c
  4622  002230  361C               	rlcf	(??_find_park_available_slot+1)^0,f,c
  4623  002232  90D8               	bcf	status,0,c
  4624  002234  361B               	rlcf	??_find_park_available_slot^0,f,c
  4625  002236  361C               	rlcf	(??_find_park_available_slot+1)^0,f,c
  4626  002238  C023  F00F         	movff	find_park_available_slot@k,___wmul@multiplier
  4627  00223C  C024  F010         	movff	find_park_available_slot@k+1,___wmul@multiplier+1
  4628  002240  0E00               	movlw	0
  4629  002242  6E12               	movwf	(___wmul@multiplicand+1)^0,c
  4630  002244  0E53               	movlw	83
  4631  002246  6E11               	movwf	___wmul@multiplicand^0,c
  4632  002248  EC84  F01A         	call	___wmul	;wreg free
  4633  00224C  0E00               	movlw	low _park
  4634  00224E  6E1D               	movwf	(??_find_park_available_slot+2)^0,c
  4635  002250  0E03               	movlw	high _park
  4636  002252  6E1E               	movwf	(??_find_park_available_slot+3)^0,c
  4637  002254  0E09               	movlw	9
  4638  002256  261D               	addwf	(??_find_park_available_slot+2)^0,f,c
  4639  002258  0E00               	movlw	0
  4640  00225A  221E               	addwfc	(??_find_park_available_slot+3)^0,f,c
  4641  00225C  500F               	movf	?___wmul^0,w,c
  4642  00225E  261D               	addwf	(??_find_park_available_slot+2)^0,f,c
  4643  002260  5010               	movf	(?___wmul+1)^0,w,c
  4644  002262  221E               	addwfc	(??_find_park_available_slot+3)^0,f,c
  4645  002264  501B               	movf	??_find_park_available_slot^0,w,c
  4646  002266  241D               	addwf	(??_find_park_available_slot+2)^0,w,c
  4647  002268  6ED9               	movwf	fsr2l,c
  4648  00226A  501C               	movf	(??_find_park_available_slot+1)^0,w,c
  4649  00226C  201E               	addwfc	(??_find_park_available_slot+3)^0,w,c
  4650  00226E  6EDA               	movwf	fsr2h,c
  4651  002270  50DE               	movf	postinc2,w,c
  4652  002272  10DE               	iorwf	postinc2,w,c
  4653  002274  A4D8               	btfss	status,2,c
  4654  002276  EF3F  F011         	goto	u2491
  4655  00227A  EF41  F011         	goto	u2490
  4656  00227E                     u2491:
  4657  00227E  EF04  F012         	goto	l2804
  4658  002282                     u2490:
  4659  002282                     
  4660                           ;main.c: 125:                 park.floors[k].slots[j].id = temp_id;
  4661  002282  C021  F01B         	movff	find_park_available_slot@j,??_find_park_available_slot
  4662  002286  C022  F01C         	movff	find_park_available_slot@j+1,??_find_park_available_slot+1
  4663  00228A  90D8               	bcf	status,0,c
  4664  00228C  361B               	rlcf	??_find_park_available_slot^0,f,c
  4665  00228E  361C               	rlcf	(??_find_park_available_slot+1)^0,f,c
  4666  002290  90D8               	bcf	status,0,c
  4667  002292  361B               	rlcf	??_find_park_available_slot^0,f,c
  4668  002294  361C               	rlcf	(??_find_park_available_slot+1)^0,f,c
  4669  002296  90D8               	bcf	status,0,c
  4670  002298  361B               	rlcf	??_find_park_available_slot^0,f,c
  4671  00229A  361C               	rlcf	(??_find_park_available_slot+1)^0,f,c
  4672  00229C  C023  F00F         	movff	find_park_available_slot@k,___wmul@multiplier
  4673  0022A0  C024  F010         	movff	find_park_available_slot@k+1,___wmul@multiplier+1
  4674  0022A4  0E00               	movlw	0
  4675  0022A6  6E12               	movwf	(___wmul@multiplicand+1)^0,c
  4676  0022A8  0E53               	movlw	83
  4677  0022AA  6E11               	movwf	___wmul@multiplicand^0,c
  4678  0022AC  EC84  F01A         	call	___wmul	;wreg free
  4679  0022B0  0E00               	movlw	low _park
  4680  0022B2  6E1D               	movwf	(??_find_park_available_slot+2)^0,c
  4681  0022B4  0E03               	movlw	high _park
  4682  0022B6  6E1E               	movwf	(??_find_park_available_slot+3)^0,c
  4683  0022B8  0E03               	movlw	3
  4684  0022BA  261D               	addwf	(??_find_park_available_slot+2)^0,f,c
  4685  0022BC  0E00               	movlw	0
  4686  0022BE  221E               	addwfc	(??_find_park_available_slot+3)^0,f,c
  4687  0022C0  500F               	movf	?___wmul^0,w,c
  4688  0022C2  261D               	addwf	(??_find_park_available_slot+2)^0,f,c
  4689  0022C4  5010               	movf	(?___wmul+1)^0,w,c
  4690  0022C6  221E               	addwfc	(??_find_park_available_slot+3)^0,f,c
  4691  0022C8  501B               	movf	??_find_park_available_slot^0,w,c
  4692  0022CA  241D               	addwf	(??_find_park_available_slot+2)^0,w,c
  4693  0022CC  6ED9               	movwf	fsr2l,c
  4694  0022CE  501C               	movf	(??_find_park_available_slot+1)^0,w,c
  4695  0022D0  201E               	addwfc	(??_find_park_available_slot+3)^0,w,c
  4696  0022D2  6EDA               	movwf	fsr2h,c
  4697  0022D4  C019  FFDE         	movff	find_park_available_slot@temp_id,postinc2
  4698  0022D8  C01A  FFDD         	movff	find_park_available_slot@temp_id+1,postdec2
  4699                           
  4700                           ;main.c: 126:                 park.floors[k].slots[j].entry_time = time_counter;
  4701  0022DC  C021  F01B         	movff	find_park_available_slot@j,??_find_park_available_slot
  4702  0022E0  C022  F01C         	movff	find_park_available_slot@j+1,??_find_park_available_slot+1
  4703  0022E4  90D8               	bcf	status,0,c
  4704  0022E6  361B               	rlcf	??_find_park_available_slot^0,f,c
  4705  0022E8  361C               	rlcf	(??_find_park_available_slot+1)^0,f,c
  4706  0022EA  90D8               	bcf	status,0,c
  4707  0022EC  361B               	rlcf	??_find_park_available_slot^0,f,c
  4708  0022EE  361C               	rlcf	(??_find_park_available_slot+1)^0,f,c
  4709  0022F0  90D8               	bcf	status,0,c
  4710  0022F2  361B               	rlcf	??_find_park_available_slot^0,f,c
  4711  0022F4  361C               	rlcf	(??_find_park_available_slot+1)^0,f,c
  4712  0022F6  C023  F00F         	movff	find_park_available_slot@k,___wmul@multiplier
  4713  0022FA  C024  F010         	movff	find_park_available_slot@k+1,___wmul@multiplier+1
  4714  0022FE  0E00               	movlw	0
  4715  002300  6E12               	movwf	(___wmul@multiplicand+1)^0,c
  4716  002302  0E53               	movlw	83
  4717  002304  6E11               	movwf	___wmul@multiplicand^0,c
  4718  002306  EC84  F01A         	call	___wmul	;wreg free
  4719  00230A  0E00               	movlw	low _park
  4720  00230C  6E1D               	movwf	(??_find_park_available_slot+2)^0,c
  4721  00230E  0E03               	movlw	high _park
  4722  002310  6E1E               	movwf	(??_find_park_available_slot+3)^0,c
  4723  002312  0E07               	movlw	7
  4724  002314  261D               	addwf	(??_find_park_available_slot+2)^0,f,c
  4725  002316  0E00               	movlw	0
  4726  002318  221E               	addwfc	(??_find_park_available_slot+3)^0,f,c
  4727  00231A  500F               	movf	?___wmul^0,w,c
  4728  00231C  261D               	addwf	(??_find_park_available_slot+2)^0,f,c
  4729  00231E  5010               	movf	(?___wmul+1)^0,w,c
  4730  002320  221E               	addwfc	(??_find_park_available_slot+3)^0,f,c
  4731  002322  501B               	movf	??_find_park_available_slot^0,w,c
  4732  002324  241D               	addwf	(??_find_park_available_slot+2)^0,w,c
  4733  002326  6ED9               	movwf	fsr2l,c
  4734  002328  501C               	movf	(??_find_park_available_slot+1)^0,w,c
  4735  00232A  201E               	addwfc	(??_find_park_available_slot+3)^0,w,c
  4736  00232C  6EDA               	movwf	fsr2h,c
  4737  00232E  C04B  FFDE         	movff	_time_counter,postinc2
  4738  002332  C04C  FFDD         	movff	_time_counter+1,postdec2
  4739                           
  4740                           ;main.c: 127:                 park.floors[k].slots[j].occupied = 1;
  4741  002336  C021  F01B         	movff	find_park_available_slot@j,??_find_park_available_slot
  4742  00233A  C022  F01C         	movff	find_park_available_slot@j+1,??_find_park_available_slot+1
  4743  00233E  90D8               	bcf	status,0,c
  4744  002340  361B               	rlcf	??_find_park_available_slot^0,f,c
  4745  002342  361C               	rlcf	(??_find_park_available_slot+1)^0,f,c
  4746  002344  90D8               	bcf	status,0,c
  4747  002346  361B               	rlcf	??_find_park_available_slot^0,f,c
  4748  002348  361C               	rlcf	(??_find_park_available_slot+1)^0,f,c
  4749  00234A  90D8               	bcf	status,0,c
  4750  00234C  361B               	rlcf	??_find_park_available_slot^0,f,c
  4751  00234E  361C               	rlcf	(??_find_park_available_slot+1)^0,f,c
  4752  002350  C023  F00F         	movff	find_park_available_slot@k,___wmul@multiplier
  4753  002354  C024  F010         	movff	find_park_available_slot@k+1,___wmul@multiplier+1
  4754  002358  0E00               	movlw	0
  4755  00235A  6E12               	movwf	(___wmul@multiplicand+1)^0,c
  4756  00235C  0E53               	movlw	83
  4757  00235E  6E11               	movwf	___wmul@multiplicand^0,c
  4758  002360  EC84  F01A         	call	___wmul	;wreg free
  4759  002364  0E00               	movlw	low _park
  4760  002366  6E1D               	movwf	(??_find_park_available_slot+2)^0,c
  4761  002368  0E03               	movlw	high _park
  4762  00236A  6E1E               	movwf	(??_find_park_available_slot+3)^0,c
  4763  00236C  0E09               	movlw	9
  4764  00236E  261D               	addwf	(??_find_park_available_slot+2)^0,f,c
  4765  002370  0E00               	movlw	0
  4766  002372  221E               	addwfc	(??_find_park_available_slot+3)^0,f,c
  4767  002374  500F               	movf	?___wmul^0,w,c
  4768  002376  261D               	addwf	(??_find_park_available_slot+2)^0,f,c
  4769  002378  5010               	movf	(?___wmul+1)^0,w,c
  4770  00237A  221E               	addwfc	(??_find_park_available_slot+3)^0,f,c
  4771  00237C  501B               	movf	??_find_park_available_slot^0,w,c
  4772  00237E  241D               	addwf	(??_find_park_available_slot+2)^0,w,c
  4773  002380  6ED9               	movwf	fsr2l,c
  4774  002382  501C               	movf	(??_find_park_available_slot+1)^0,w,c
  4775  002384  201E               	addwfc	(??_find_park_available_slot+3)^0,w,c
  4776  002386  6EDA               	movwf	fsr2h,c
  4777  002388  0E01               	movlw	1
  4778  00238A  6EDE               	movwf	postinc2,c
  4779  00238C  0E00               	movlw	0
  4780  00238E  6EDD               	movwf	postdec2,c
  4781                           
  4782                           ;main.c: 128:                 park.floors[k].available_f--;
  4783  002390  C023  F00F         	movff	find_park_available_slot@k,___wmul@multiplier
  4784  002394  C024  F010         	movff	find_park_available_slot@k+1,___wmul@multiplier+1
  4785  002398  0E00               	movlw	0
  4786  00239A  6E12               	movwf	(___wmul@multiplicand+1)^0,c
  4787  00239C  0E53               	movlw	83
  4788  00239E  6E11               	movwf	___wmul@multiplicand^0,c
  4789  0023A0  EC84  F01A         	call	___wmul	;wreg free
  4790  0023A4  0E53               	movlw	low (_park+83)
  4791  0023A6  240F               	addwf	?___wmul^0,w,c
  4792  0023A8  6ED9               	movwf	fsr2l,c
  4793  0023AA  0E03               	movlw	high (_park+83)
  4794  0023AC  2010               	addwfc	(?___wmul+1)^0,w,c
  4795  0023AE  6EDA               	movwf	fsr2h,c
  4796  0023B0  06DE               	decf	postinc2,f,c
  4797  0023B2  0E00               	movlw	0
  4798  0023B4  5ADD               	subwfb	postdec2,f,c
  4799  0023B6                     
  4800                           ;main.c: 129:                 park.available--;
  4801  0023B6  EE23  F000         	lfsr	2,_park
  4802  0023BA  06DE               	decf	postinc2,f,c
  4803  0023BC  0E00               	movlw	0
  4804  0023BE  5ADD               	subwfb	postdec2,f,c
  4805  0023C0                     
  4806                           ;main.c: 130:                 *level = park.floors[k].level;
  4807  0023C0  C023  F00F         	movff	find_park_available_slot@k,___wmul@multiplier
  4808  0023C4  C024  F010         	movff	find_park_available_slot@k+1,___wmul@multiplier+1
  4809  0023C8  0E00               	movlw	0
  4810  0023CA  6E12               	movwf	(___wmul@multiplicand+1)^0,c
  4811  0023CC  0E53               	movlw	83
  4812  0023CE  6E11               	movwf	___wmul@multiplicand^0,c
  4813  0023D0  EC84  F01A         	call	___wmul	;wreg free
  4814  0023D4  0E02               	movlw	low (_park+2)
  4815  0023D6  240F               	addwf	?___wmul^0,w,c
  4816  0023D8  6ED9               	movwf	fsr2l,c
  4817  0023DA  0E03               	movlw	high (_park+2)
  4818  0023DC  2010               	addwfc	(?___wmul+1)^0,w,c
  4819  0023DE  6EDA               	movwf	fsr2h,c
  4820  0023E0  C015  FFE1         	movff	find_park_available_slot@level,fsr1l
  4821  0023E4  C016  FFE2         	movff	find_park_available_slot@level+1,fsr1h
  4822  0023E8  CFDF FFE7          	movff	indf2,indf1
  4823  0023EC                     
  4824                           ;main.c: 131:                 *slot = j;
  4825  0023EC  C017  FFD9         	movff	find_park_available_slot@slot,fsr2l
  4826  0023F0  C018  FFDA         	movff	find_park_available_slot@slot+1,fsr2h
  4827  0023F4  C021  FFDE         	movff	find_park_available_slot@j,postinc2
  4828  0023F8  C022  FFDD         	movff	find_park_available_slot@j+1,postdec2
  4829  0023FC                     
  4830                           ;main.c: 132:                 return 1;
  4831  0023FC  0E00               	movlw	0
  4832  0023FE  6E16               	movwf	(?_find_park_available_slot+1)^0,c
  4833  002400  0E01               	movlw	1
  4834  002402  6E15               	movwf	?_find_park_available_slot^0,c
  4835  002404  EF28  F012         	goto	l130
  4836  002408                     l2804:
  4837                           
  4838                           ;main.c: 134:         }
  4839  002408  4A21               	infsnz	find_park_available_slot@j^0,f,c
  4840  00240A  2A22               	incf	(find_park_available_slot@j+1)^0,f,c
  4841  00240C  BE22               	btfsc	(find_park_available_slot@j+1)^0,7,c
  4842  00240E  EF12  F012         	goto	u2501
  4843  002412  5022               	movf	(find_park_available_slot@j+1)^0,w,c
  4844  002414  E109               	bnz	u2500
  4845  002416  0E0A               	movlw	10
  4846  002418  5C21               	subwf	find_park_available_slot@j^0,w,c
  4847  00241A  A0D8               	btfss	status,0,c
  4848  00241C  EF12  F012         	goto	u2501
  4849  002420  EF14  F012         	goto	u2500
  4850  002424                     u2501:
  4851  002424  EFAB  F010         	goto	l2786
  4852  002428                     u2500:
  4853  002428                     
  4854                           ;main.c: 135:     }
  4855  002428  4A23               	infsnz	find_park_available_slot@k^0,f,c
  4856  00242A  2A24               	incf	(find_park_available_slot@k+1)^0,f,c
  4857  00242C  BE24               	btfsc	(find_park_available_slot@k+1)^0,7,c
  4858  00242E  EF22  F012         	goto	u2511
  4859  002432  5024               	movf	(find_park_available_slot@k+1)^0,w,c
  4860  002434  E109               	bnz	u2510
  4861  002436  0E04               	movlw	4
  4862  002438  5C23               	subwf	find_park_available_slot@k^0,w,c
  4863  00243A  A0D8               	btfss	status,0,c
  4864  00243C  EF22  F012         	goto	u2511
  4865  002440  EF24  F012         	goto	u2510
  4866  002444                     u2511:
  4867  002444  EFA7  F010         	goto	l2780
  4868  002448                     u2510:
  4869  002448                     
  4870                           ;main.c: 136:     return 0;
  4871  002448  0E00               	movlw	0
  4872  00244A  6E16               	movwf	(?_find_park_available_slot+1)^0,c
  4873  00244C  0E00               	movlw	0
  4874  00244E  6E15               	movwf	?_find_park_available_slot^0,c
  4875  002450                     l130:
  4876  002450  0012               	return		;funcret
  4877  002452                     __end_of_find_park_available_slot:
  4878                           	callstack 0
  4879                           
  4880 ;; *************** function _enqueue *****************
  4881 ;; Defined at:
  4882 ;;		line 227 in file "main.c"
  4883 ;; Parameters:    Size  Location     Type
  4884 ;;  car_id          2   14[COMRAM] int 
  4885 ;; Auto vars:     Size  Location     Type
  4886 ;;		None
  4887 ;; Return value:  Size  Location     Type
  4888 ;;                  1    wreg      void 
  4889 ;; Registers used:
  4890 ;;		wreg, fsr2l, fsr2h, status,2, status,0
  4891 ;; Tracked objects:
  4892 ;;		On entry : 0/0
  4893 ;;		On exit  : 0/0
  4894 ;;		Unchanged: 0/0
  4895 ;; Data sizes:     COMRAM   BANK0   BANK1   BANK2   BANK3   BANK4   BANK5   BANK6   BANK7   BANK8   BANK9  BANK10  BANK1
      +1  BANK12  BANK13  BANK14  BANK15
  4896 ;;      Params:         2       0       0       0       0       0       0       0       0       0       0       0       
      +0       0       0       0       0
  4897 ;;      Locals:         0       0       0       0       0       0       0       0       0       0       0       0       
      +0       0       0       0       0
  4898 ;;      Temps:          0       0       0       0       0       0       0       0       0       0       0       0       
      +0       0       0       0       0
  4899 ;;      Totals:         2       0       0       0       0       0       0       0       0       0       0       0       
      +0       0       0       0       0
  4900 ;;Total ram usage:        2 bytes
  4901 ;; Hardware stack levels used:    1
  4902 ;; Hardware stack levels required when called:    3
  4903 ;; This function calls:
  4904 ;;		Nothing
  4905 ;; This function is called by:
  4906 ;;		_eval_message
  4907 ;; This function uses a non-reentrant model
  4908 ;;
  4909                           
  4910                           	psect	text10
  4911  0034CA                     __ptext10:
  4912                           	callstack 0
  4913  0034CA                     _enqueue:
  4914                           	callstack 25
  4915  0034CA                     
  4916                           ;main.c: 228:     if (q.count < 16) {
  4917  0034CA  0100               	movlb	0	; () banked
  4918  0034CC  BF83               	btfsc	(_q+35)& (0+255),7,b
  4919  0034CE  EF74  F01A         	goto	u2600
  4920  0034D2  5183               	movf	(_q+35)& (0+255),w,b
  4921  0034D4  E107               	bnz	u2601
  4922  0034D6  0E10               	movlw	16
  4923  0034D8  5D82               	subwf	(_q+34)& (0+255),w,b
  4924  0034DA  B0D8               	btfsc	status,0,c
  4925  0034DC  EF72  F01A         	goto	u2601
  4926  0034E0  EF74  F01A         	goto	u2600
  4927  0034E4                     u2601:
  4928  0034E4  EF83  F01A         	goto	l162
  4929  0034E8                     u2600:
  4930  0034E8                     
  4931                           ; BSR set to: 0
  4932                           ;main.c: 229:         q.cars[q.count] = car_id;
  4933  0034E8  90D8               	bcf	status,0,c
  4934  0034EA  3582               	rlcf	(_q+34)& (0+255),w,b
  4935  0034EC  6ED9               	movwf	fsr2l,c
  4936  0034EE  3583               	rlcf	(_q+35)& (0+255),w,b
  4937  0034F0  6EDA               	movwf	fsr2h,c
  4938  0034F2  0E60               	movlw	low _q
  4939  0034F4  26D9               	addwf	fsr2l,f,c
  4940  0034F6  0E00               	movlw	high _q
  4941  0034F8  22DA               	addwfc	fsr2h,f,c
  4942  0034FA  C00F  FFDE         	movff	enqueue@car_id,postinc2
  4943  0034FE  C010  FFDD         	movff	enqueue@car_id+1,postdec2
  4944  003502                     
  4945                           ; BSR set to: 0
  4946                           ;main.c: 230:         q.count++;
  4947  003502  4B82               	infsnz	(_q+34)& (0+255),f,b
  4948  003504  2B83               	incf	(_q+35)& (0+255),f,b
  4949  003506                     l162:
  4950                           
  4951                           ; BSR set to: 0
  4952  003506  0012               	return		;funcret
  4953  003508                     __end_of_enqueue:
  4954                           	callstack 0
  4955                           
  4956 ;; *************** function _enable_rxtx *****************
  4957 ;; Defined at:
  4958 ;;		line 110 in file "main.c"
  4959 ;; Parameters:    Size  Location     Type
  4960 ;;		None
  4961 ;; Auto vars:     Size  Location     Type
  4962 ;;		None
  4963 ;; Return value:  Size  Location     Type
  4964 ;;                  1    wreg      void 
  4965 ;; Registers used:
  4966 ;;		None
  4967 ;; Tracked objects:
  4968 ;;		On entry : 0/0
  4969 ;;		On exit  : 0/0
  4970 ;;		Unchanged: 0/0
  4971 ;; Data sizes:     COMRAM   BANK0   BANK1   BANK2   BANK3   BANK4   BANK5   BANK6   BANK7   BANK8   BANK9  BANK10  BANK1
      +1  BANK12  BANK13  BANK14  BANK15
  4972 ;;      Params:         0       0       0       0       0       0       0       0       0       0       0       0       
      +0       0       0       0       0
  4973 ;;      Locals:         0       0       0       0       0       0       0       0       0       0       0       0       
      +0       0       0       0       0
  4974 ;;      Temps:          0       0       0       0       0       0       0       0       0       0       0       0       
      +0       0       0       0       0
  4975 ;;      Totals:         0       0       0       0       0       0       0       0       0       0       0       0       
      +0       0       0       0       0
  4976 ;;Total ram usage:        0 bytes
  4977 ;; Hardware stack levels used:    1
  4978 ;; Hardware stack levels required when called:    3
  4979 ;; This function calls:
  4980 ;;		Nothing
  4981 ;; This function is called by:
  4982 ;;		_receive_message
  4983 ;;		_eval_message
  4984 ;; This function uses a non-reentrant model
  4985 ;;
  4986                           
  4987                           	psect	text11
  4988  003558                     __ptext11:
  4989                           	callstack 0
  4990  003558                     _enable_rxtx:
  4991                           	callstack 25
  4992  003558  8A9D               	bsf	157,5,c	;volatile
  4993  00355A  889D               	bsf	157,4,c	;volatile
  4994  00355C  0012               	return		;funcret
  4995  00355E                     __end_of_enable_rxtx:
  4996                           	callstack 0
  4997                           
  4998 ;; *************** function _disable_rxtx *****************
  4999 ;; Defined at:
  5000 ;;		line 108 in file "main.c"
  5001 ;; Parameters:    Size  Location     Type
  5002 ;;		None
  5003 ;; Auto vars:     Size  Location     Type
  5004 ;;		None
  5005 ;; Return value:  Size  Location     Type
  5006 ;;                  1    wreg      void 
  5007 ;; Registers used:
  5008 ;;		None
  5009 ;; Tracked objects:
  5010 ;;		On entry : 0/0
  5011 ;;		On exit  : 0/0
  5012 ;;		Unchanged: 0/0
  5013 ;; Data sizes:     COMRAM   BANK0   BANK1   BANK2   BANK3   BANK4   BANK5   BANK6   BANK7   BANK8   BANK9  BANK10  BANK1
      +1  BANK12  BANK13  BANK14  BANK15
  5014 ;;      Params:         0       0       0       0       0       0       0       0       0       0       0       0       
      +0       0       0       0       0
  5015 ;;      Locals:         0       0       0       0       0       0       0       0       0       0       0       0       
      +0       0       0       0       0
  5016 ;;      Temps:          0       0       0       0       0       0       0       0       0       0       0       0       
      +0       0       0       0       0
  5017 ;;      Totals:         0       0       0       0       0       0       0       0       0       0       0       0       
      +0       0       0       0       0
  5018 ;;Total ram usage:        0 bytes
  5019 ;; Hardware stack levels used:    1
  5020 ;; Hardware stack levels required when called:    3
  5021 ;; This function calls:
  5022 ;;		Nothing
  5023 ;; This function is called by:
  5024 ;;		_receive_message
  5025 ;;		_eval_message
  5026 ;; This function uses a non-reentrant model
  5027 ;;
  5028                           
  5029                           	psect	text12
  5030  00355E                     __ptext12:
  5031                           	callstack 0
  5032  00355E                     _disable_rxtx:
  5033                           	callstack 25
  5034  00355E  9A9D               	bcf	157,5,c	;volatile
  5035  003560  989D               	bcf	157,4,c	;volatile
  5036  003562  0012               	return		;funcret
  5037  003564                     __end_of_disable_rxtx:
  5038                           	callstack 0
  5039                           
  5040 ;; *************** function _dequeue *****************
  5041 ;; Defined at:
  5042 ;;		line 235 in file "main.c"
  5043 ;; Parameters:    Size  Location     Type
  5044 ;;		None
  5045 ;; Auto vars:     Size  Location     Type
  5046 ;;  i               2   19[COMRAM] int 
  5047 ;;  car_id          2   17[COMRAM] int 
  5048 ;; Return value:  Size  Location     Type
  5049 ;;                  2   14[COMRAM] int 
  5050 ;; Registers used:
  5051 ;;		wreg, fsr1l, fsr1h, fsr2l, fsr2h, status,2, status,0
  5052 ;; Tracked objects:
  5053 ;;		On entry : 0/0
  5054 ;;		On exit  : 0/0
  5055 ;;		Unchanged: 0/0
  5056 ;; Data sizes:     COMRAM   BANK0   BANK1   BANK2   BANK3   BANK4   BANK5   BANK6   BANK7   BANK8   BANK9  BANK10  BANK1
      +1  BANK12  BANK13  BANK14  BANK15
  5057 ;;      Params:         2       0       0       0       0       0       0       0       0       0       0       0       
      +0       0       0       0       0
  5058 ;;      Locals:         4       0       0       0       0       0       0       0       0       0       0       0       
      +0       0       0       0       0
  5059 ;;      Temps:          1       0       0       0       0       0       0       0       0       0       0       0       
      +0       0       0       0       0
  5060 ;;      Totals:         7       0       0       0       0       0       0       0       0       0       0       0       
      +0       0       0       0       0
  5061 ;;Total ram usage:        7 bytes
  5062 ;; Hardware stack levels used:    1
  5063 ;; Hardware stack levels required when called:    3
  5064 ;; This function calls:
  5065 ;;		Nothing
  5066 ;; This function is called by:
  5067 ;;		_eval_message
  5068 ;; This function uses a non-reentrant model
  5069 ;;
  5070                           
  5071                           	psect	text13
  5072  002F3E                     __ptext13:
  5073                           	callstack 0
  5074  002F3E                     _dequeue:
  5075                           	callstack 25
  5076  002F3E                     
  5077                           ;main.c: 236:     if (q.count > 0) {
  5078  002F3E  0100               	movlb	0	; () banked
  5079  002F40  BF83               	btfsc	(_q+35)& (0+255),7,b
  5080  002F42  EFAB  F017         	goto	u2611
  5081  002F46  5183               	movf	(_q+35)& (0+255),w,b
  5082  002F48  E108               	bnz	u2610
  5083  002F4A  0582               	decf	(_q+34)& (0+255),w,b
  5084  002F4C  A0D8               	btfss	status,0,c
  5085  002F4E  EFAB  F017         	goto	u2611
  5086  002F52  EFAD  F017         	goto	u2610
  5087  002F56                     u2611:
  5088  002F56  EFE7  F017         	goto	l2906
  5089  002F5A                     u2610:
  5090  002F5A                     
  5091                           ; BSR set to: 0
  5092                           ;main.c: 237:         int car_id = q.cars[0];
  5093  002F5A  C060  F012         	movff	_q,dequeue@car_id
  5094  002F5E  C061  F013         	movff	_q+1,dequeue@car_id+1
  5095  002F62                     
  5096                           ; BSR set to: 0
  5097                           ;main.c: 239:         for (int i = 1; i < q.count; i++) {
  5098  002F62  0E00               	movlw	0
  5099  002F64  6E15               	movwf	(dequeue@i+1)^0,c
  5100  002F66  0E01               	movlw	1
  5101  002F68  6E14               	movwf	dequeue@i^0,c
  5102  002F6A  EFCF  F017         	goto	l2898
  5103  002F6E                     l2894:
  5104                           
  5105                           ; BSR set to: 0
  5106                           ;main.c: 240:             q.cars[i - 1] = q.cars[i];
  5107  002F6E  90D8               	bcf	status,0,c
  5108  002F70  3414               	rlcf	dequeue@i^0,w,c
  5109  002F72  6ED9               	movwf	fsr2l,c
  5110  002F74  3415               	rlcf	(dequeue@i+1)^0,w,c
  5111  002F76  6EDA               	movwf	fsr2h,c
  5112  002F78  0E60               	movlw	low _q
  5113  002F7A  26D9               	addwf	fsr2l,f,c
  5114  002F7C  0E00               	movlw	high _q
  5115  002F7E  22DA               	addwfc	fsr2h,f,c
  5116  002F80  90D8               	bcf	status,0,c
  5117  002F82  3414               	rlcf	dequeue@i^0,w,c
  5118  002F84  6EE1               	movwf	fsr1l,c
  5119  002F86  3415               	rlcf	(dequeue@i+1)^0,w,c
  5120  002F88  6EE2               	movwf	fsr1h,c
  5121  002F8A  0E5E               	movlw	low (_q+65534)
  5122  002F8C  26E1               	addwf	fsr1l,f,c
  5123  002F8E  0E00               	movlw	high (_q+65534)
  5124  002F90  22E2               	addwfc	fsr1h,f,c
  5125  002F92  CFDE FFE6          	movff	postinc2,postinc1
  5126  002F96  CFDD FFE5          	movff	postdec2,postdec1
  5127  002F9A                     
  5128                           ; BSR set to: 0
  5129                           ;main.c: 241:         }
  5130  002F9A  4A14               	infsnz	dequeue@i^0,f,c
  5131  002F9C  2A15               	incf	(dequeue@i+1)^0,f,c
  5132  002F9E                     l2898:
  5133                           
  5134                           ; BSR set to: 0
  5135  002F9E  5182               	movf	(_q+34)& (0+255),w,b
  5136  002FA0  5C14               	subwf	dequeue@i^0,w,c
  5137  002FA2  5015               	movf	(dequeue@i+1)^0,w,c
  5138  002FA4  0A80               	xorlw	128
  5139  002FA6  6E11               	movwf	??_dequeue^0,c
  5140  002FA8  5183               	movf	(_q+35)& (0+255),w,b
  5141  002FAA  0A80               	xorlw	128
  5142  002FAC  5811               	subwfb	??_dequeue^0,w,c
  5143  002FAE  A0D8               	btfss	status,0,c
  5144  002FB0  EFDC  F017         	goto	u2621
  5145  002FB4  EFDE  F017         	goto	u2620
  5146  002FB8                     u2621:
  5147  002FB8  EFB7  F017         	goto	l2894
  5148  002FBC                     u2620:
  5149  002FBC                     
  5150                           ; BSR set to: 0
  5151                           ;main.c: 242:         q.count--;
  5152  002FBC  0782               	decf	(_q+34)& (0+255),f,b
  5153  002FBE  A0D8               	btfss	status,0,c
  5154  002FC0  0783               	decf	(_q+35)& (0+255),f,b
  5155  002FC2                     
  5156                           ; BSR set to: 0
  5157                           ;main.c: 243:         return car_id;
  5158  002FC2  C012  F00F         	movff	dequeue@car_id,?_dequeue
  5159  002FC6  C013  F010         	movff	dequeue@car_id+1,?_dequeue+1
  5160  002FCA  EFEB  F017         	goto	l169
  5161  002FCE                     l2906:
  5162                           
  5163                           ; BSR set to: 0
  5164                           ;main.c: 245:     return 0;
  5165  002FCE  0E00               	movlw	0
  5166  002FD0  6E10               	movwf	(?_dequeue+1)^0,c
  5167  002FD2  0E00               	movlw	0
  5168  002FD4  6E0F               	movwf	?_dequeue^0,c
  5169  002FD6                     l169:
  5170                           
  5171                           ; BSR set to: 0
  5172  002FD6  0012               	return		;funcret
  5173  002FD8                     __end_of_dequeue:
  5174                           	callstack 0
  5175                           
  5176 ;; *************** function _buf_push *****************
  5177 ;; Defined at:
  5178 ;;		line 257 in file "main.c"
  5179 ;; Parameters:    Size  Location     Type
  5180 ;;  v               1    wreg     unsigned char 
  5181 ;;  buf             1   28[COMRAM] enum E4894
  5182 ;; Auto vars:     Size  Location     Type
  5183 ;;  v               1   31[COMRAM] unsigned char 
  5184 ;; Return value:  Size  Location     Type
  5185 ;;                  1    wreg      void 
  5186 ;; Registers used:
  5187 ;;		wreg, fsr2l, fsr2h, status,2, status,0
  5188 ;; Tracked objects:
  5189 ;;		On entry : 0/0
  5190 ;;		On exit  : 0/0
  5191 ;;		Unchanged: 0/0
  5192 ;; Data sizes:     COMRAM   BANK0   BANK1   BANK2   BANK3   BANK4   BANK5   BANK6   BANK7   BANK8   BANK9  BANK10  BANK1
      +1  BANK12  BANK13  BANK14  BANK15
  5193 ;;      Params:         1       0       0       0       0       0       0       0       0       0       0       0       
      +0       0       0       0       0
  5194 ;;      Locals:         1       0       0       0       0       0       0       0       0       0       0       0       
      +0       0       0       0       0
  5195 ;;      Temps:          2       0       0       0       0       0       0       0       0       0       0       0       
      +0       0       0       0       0
  5196 ;;      Totals:         4       0       0       0       0       0       0       0       0       0       0       0       
      +0       0       0       0       0
  5197 ;;Total ram usage:        4 bytes
  5198 ;; Hardware stack levels used:    1
  5199 ;; Hardware stack levels required when called:    3
  5200 ;; This function calls:
  5201 ;;		Nothing
  5202 ;; This function is called by:
  5203 ;;		_eval_message
  5204 ;;		_send_message
  5205 ;; This function uses a non-reentrant model
  5206 ;;
  5207                           
  5208                           	psect	text14
  5209  003282                     __ptext14:
  5210                           	callstack 0
  5211  003282                     _buf_push:
  5212                           	callstack 26
  5213                           
  5214                           ; BSR set to: 0
  5215                           ;incstack = 0
  5216                           ;buf_push@v stored from wreg
  5217  003282  6E20               	movwf	buf_push@v^0,c
  5218  003284                     
  5219                           ;main.c: 259:     if (buf == INBUF) inbuf[head[buf]] = v;
  5220  003284  501D               	movf	buf_push@buf^0,w,c
  5221  003286  A4D8               	btfss	status,2,c
  5222  003288  EF48  F019         	goto	u2631
  5223  00328C  EF4A  F019         	goto	u2630
  5224  003290                     u2631:
  5225  003290  EF5D  F019         	goto	l2914
  5226  003294                     u2630:
  5227  003294  0E44               	movlw	low _head
  5228  003296  241D               	addwf	buf_push@buf^0,w,c
  5229  003298  6ED9               	movwf	fsr2l,c
  5230  00329A  6ADA               	clrf	fsr2h,c
  5231  00329C  0E00               	movlw	high _head
  5232  00329E  22DA               	addwfc	fsr2h,f,c
  5233  0032A0  50DF               	movf	indf2,w,c
  5234  0032A2  6E1E               	movwf	??_buf_push^0,c
  5235  0032A4  6A1F               	clrf	(??_buf_push+1)^0,c
  5236  0032A6  0E00               	movlw	low _inbuf
  5237  0032A8  241E               	addwf	??_buf_push^0,w,c
  5238  0032AA  6ED9               	movwf	fsr2l,c
  5239  0032AC  0E01               	movlw	high _inbuf
  5240  0032AE  201F               	addwfc	(??_buf_push+1)^0,w,c
  5241  0032B0  6EDA               	movwf	fsr2h,c
  5242  0032B2  C020  FFDF         	movff	buf_push@v,indf2
  5243  0032B6  EF6E  F019         	goto	l178
  5244  0032BA                     l2914:
  5245  0032BA  0E44               	movlw	low _head
  5246  0032BC  241D               	addwf	buf_push@buf^0,w,c
  5247  0032BE  6ED9               	movwf	fsr2l,c
  5248  0032C0  6ADA               	clrf	fsr2h,c
  5249  0032C2  0E00               	movlw	high _head
  5250  0032C4  22DA               	addwfc	fsr2h,f,c
  5251  0032C6  50DF               	movf	indf2,w,c
  5252  0032C8  6E1E               	movwf	??_buf_push^0,c
  5253  0032CA  6A1F               	clrf	(??_buf_push+1)^0,c
  5254  0032CC  0E00               	movlw	low _outbuf
  5255  0032CE  241E               	addwf	??_buf_push^0,w,c
  5256  0032D0  6ED9               	movwf	fsr2l,c
  5257  0032D2  0E02               	movlw	high _outbuf
  5258  0032D4  201F               	addwfc	(??_buf_push+1)^0,w,c
  5259  0032D6  6EDA               	movwf	fsr2h,c
  5260  0032D8  C020  FFDF         	movff	buf_push@v,indf2
  5261  0032DC                     l178:
  5262                           
  5263                           ;main.c: 261:     head[buf]++;
  5264  0032DC  0E44               	movlw	low _head
  5265  0032DE  241D               	addwf	buf_push@buf^0,w,c
  5266  0032E0  6ED9               	movwf	fsr2l,c
  5267  0032E2  6ADA               	clrf	fsr2h,c
  5268  0032E4  0E00               	movlw	high _head
  5269  0032E6  22DA               	addwfc	fsr2h,f,c
  5270  0032E8  2ADF               	incf	indf2,f,c
  5271                           
  5272                           ;main.c: 263:     if (head[buf] == 256) head[buf] = 0;
  5273  0032EA  0E44               	movlw	low _head
  5274  0032EC  241D               	addwf	buf_push@buf^0,w,c
  5275  0032EE  6ED9               	movwf	fsr2l,c
  5276  0032F0  6ADA               	clrf	fsr2h,c
  5277  0032F2  0E00               	movlw	high _head
  5278  0032F4  22DA               	addwfc	fsr2h,f,c
  5279  0032F6  0012               	return		;funcret
  5280  0032F8                     __end_of_buf_push:
  5281                           	callstack 0
  5282                           
  5283 ;; *************** function ___lwdiv *****************
  5284 ;; Defined at:
  5285 ;;		line 7 in file "/opt/microchip/xc8/v2.30/pic/sources/c99/common/lwdiv.c"
  5286 ;; Parameters:    Size  Location     Type
  5287 ;;  dividend        2   14[COMRAM] unsigned int 
  5288 ;;  divisor         2   16[COMRAM] unsigned int 
  5289 ;; Auto vars:     Size  Location     Type
  5290 ;;  quotient        2   19[COMRAM] unsigned int 
  5291 ;;  counter         1   18[COMRAM] unsigned char 
  5292 ;; Return value:  Size  Location     Type
  5293 ;;                  2   14[COMRAM] unsigned int 
  5294 ;; Registers used:
  5295 ;;		wreg, status,2, status,0
  5296 ;; Tracked objects:
  5297 ;;		On entry : 0/0
  5298 ;;		On exit  : 0/0
  5299 ;;		Unchanged: 0/0
  5300 ;; Data sizes:     COMRAM   BANK0   BANK1   BANK2   BANK3   BANK4   BANK5   BANK6   BANK7   BANK8   BANK9  BANK10  BANK1
      +1  BANK12  BANK13  BANK14  BANK15
  5301 ;;      Params:         4       0       0       0       0       0       0       0       0       0       0       0       
      +0       0       0       0       0
  5302 ;;      Locals:         3       0       0       0       0       0       0       0       0       0       0       0       
      +0       0       0       0       0
  5303 ;;      Temps:          0       0       0       0       0       0       0       0       0       0       0       0       
      +0       0       0       0       0
  5304 ;;      Totals:         7       0       0       0       0       0       0       0       0       0       0       0       
      +0       0       0       0       0
  5305 ;;Total ram usage:        7 bytes
  5306 ;; Hardware stack levels used:    1
  5307 ;; Hardware stack levels required when called:    3
  5308 ;; This function calls:
  5309 ;;		Nothing
  5310 ;; This function is called by:
  5311 ;;		_update_display
  5312 ;;		_eval_message
  5313 ;; This function uses a non-reentrant model
  5314 ;;
  5315                           
  5316                           	psect	text15
  5317  00336E                     __ptext15:
  5318                           	callstack 0
  5319  00336E                     ___lwdiv:
  5320                           	callstack 26
  5321  00336E  0E00               	movlw	0
  5322  003370  6E15               	movwf	(___lwdiv@quotient+1)^0,c
  5323  003372  0E00               	movlw	0
  5324  003374  6E14               	movwf	___lwdiv@quotient^0,c
  5325  003376  5011               	movf	___lwdiv@divisor^0,w,c
  5326  003378  1012               	iorwf	(___lwdiv@divisor+1)^0,w,c
  5327  00337A  B4D8               	btfsc	status,2,c
  5328  00337C  EFC2  F019         	goto	u2781
  5329  003380  EFC4  F019         	goto	u2780
  5330  003384                     u2781:
  5331  003384  EFEC  F019         	goto	l810
  5332  003388                     u2780:
  5333  003388  0E01               	movlw	1
  5334  00338A  6E13               	movwf	___lwdiv@counter^0,c
  5335  00338C  EFCC  F019         	goto	l3022
  5336  003390                     l3020:
  5337  003390  90D8               	bcf	status,0,c
  5338  003392  3611               	rlcf	___lwdiv@divisor^0,f,c
  5339  003394  3612               	rlcf	(___lwdiv@divisor+1)^0,f,c
  5340  003396  2A13               	incf	___lwdiv@counter^0,f,c
  5341  003398                     l3022:
  5342  003398  AE12               	btfss	(___lwdiv@divisor+1)^0,7,c
  5343  00339A  EFD1  F019         	goto	u2791
  5344  00339E  EFD3  F019         	goto	u2790
  5345  0033A2                     u2791:
  5346  0033A2  EFC8  F019         	goto	l3020
  5347  0033A6                     u2790:
  5348  0033A6                     l3024:
  5349  0033A6  90D8               	bcf	status,0,c
  5350  0033A8  3614               	rlcf	___lwdiv@quotient^0,f,c
  5351  0033AA  3615               	rlcf	(___lwdiv@quotient+1)^0,f,c
  5352  0033AC  5011               	movf	___lwdiv@divisor^0,w,c
  5353  0033AE  5C0F               	subwf	___lwdiv@dividend^0,w,c
  5354  0033B0  5012               	movf	(___lwdiv@divisor+1)^0,w,c
  5355  0033B2  5810               	subwfb	(___lwdiv@dividend+1)^0,w,c
  5356  0033B4  A0D8               	btfss	status,0,c
  5357  0033B6  EFDF  F019         	goto	u2801
  5358  0033BA  EFE1  F019         	goto	u2800
  5359  0033BE                     u2801:
  5360  0033BE  EFE6  F019         	goto	l3032
  5361  0033C2                     u2800:
  5362  0033C2  5011               	movf	___lwdiv@divisor^0,w,c
  5363  0033C4  5E0F               	subwf	___lwdiv@dividend^0,f,c
  5364  0033C6  5012               	movf	(___lwdiv@divisor+1)^0,w,c
  5365  0033C8  5A10               	subwfb	(___lwdiv@dividend+1)^0,f,c
  5366  0033CA  8014               	bsf	___lwdiv@quotient^0,0,c
  5367  0033CC                     l3032:
  5368  0033CC  90D8               	bcf	status,0,c
  5369  0033CE  3212               	rrcf	(___lwdiv@divisor+1)^0,f,c
  5370  0033D0  3211               	rrcf	___lwdiv@divisor^0,f,c
  5371  0033D2  2E13               	decfsz	___lwdiv@counter^0,f,c
  5372  0033D4  EFD3  F019         	goto	l3024
  5373  0033D8                     l810:
  5374  0033D8  C014  F00F         	movff	___lwdiv@quotient,?___lwdiv
  5375  0033DC  C015  F010         	movff	___lwdiv@quotient+1,?___lwdiv+1
  5376  0033E0  0012               	return		;funcret
  5377  0033E2                     __end_of___lwdiv:
  5378                           	callstack 0
  5379                           
  5380 ;; *************** function ___awmod *****************
  5381 ;; Defined at:
  5382 ;;		line 7 in file "/opt/microchip/xc8/v2.30/pic/sources/c99/common/awmod.c"
  5383 ;; Parameters:    Size  Location     Type
  5384 ;;  dividend        2   22[COMRAM] int 
  5385 ;;  divisor         2   24[COMRAM] int 
  5386 ;; Auto vars:     Size  Location     Type
  5387 ;;  sign            1   27[COMRAM] unsigned char 
  5388 ;;  counter         1   26[COMRAM] unsigned char 
  5389 ;; Return value:  Size  Location     Type
  5390 ;;                  2   22[COMRAM] int 
  5391 ;; Registers used:
  5392 ;;		wreg, status,2, status,0
  5393 ;; Tracked objects:
  5394 ;;		On entry : 0/0
  5395 ;;		On exit  : 0/0
  5396 ;;		Unchanged: 0/0
  5397 ;; Data sizes:     COMRAM   BANK0   BANK1   BANK2   BANK3   BANK4   BANK5   BANK6   BANK7   BANK8   BANK9  BANK10  BANK1
      +1  BANK12  BANK13  BANK14  BANK15
  5398 ;;      Params:         4       0       0       0       0       0       0       0       0       0       0       0       
      +0       0       0       0       0
  5399 ;;      Locals:         2       0       0       0       0       0       0       0       0       0       0       0       
      +0       0       0       0       0
  5400 ;;      Temps:          0       0       0       0       0       0       0       0       0       0       0       0       
      +0       0       0       0       0
  5401 ;;      Totals:         6       0       0       0       0       0       0       0       0       0       0       0       
      +0       0       0       0       0
  5402 ;;Total ram usage:        6 bytes
  5403 ;; Hardware stack levels used:    1
  5404 ;; Hardware stack levels required when called:    3
  5405 ;; This function calls:
  5406 ;;		Nothing
  5407 ;; This function is called by:
  5408 ;;		_update_display
  5409 ;;		_eval_message
  5410 ;;		_send_message
  5411 ;; This function uses a non-reentrant model
  5412 ;;
  5413                           
  5414                           	psect	text16
  5415  002DE4                     __ptext16:
  5416                           	callstack 0
  5417  002DE4                     ___awmod:
  5418                           	callstack 26
  5419  002DE4  0E00               	movlw	0
  5420  002DE6  6E1C               	movwf	___awmod@sign^0,c
  5421  002DE8  BE18               	btfsc	(___awmod@dividend+1)^0,7,c
  5422  002DEA  EFFB  F016         	goto	u2720
  5423  002DEE  EFF9  F016         	goto	u2721
  5424  002DF2                     u2721:
  5425  002DF2  EF01  F017         	goto	l2986
  5426  002DF6                     u2720:
  5427  002DF6  6C17               	negf	___awmod@dividend^0,c
  5428  002DF8  1E18               	comf	(___awmod@dividend+1)^0,f,c
  5429  002DFA  B0D8               	btfsc	status,0,c
  5430  002DFC  2A18               	incf	(___awmod@dividend+1)^0,f,c
  5431  002DFE  0E01               	movlw	1
  5432  002E00  6E1C               	movwf	___awmod@sign^0,c
  5433  002E02                     l2986:
  5434  002E02  BE1A               	btfsc	(___awmod@divisor+1)^0,7,c
  5435  002E04  EF08  F017         	goto	u2730
  5436  002E08  EF06  F017         	goto	u2731
  5437  002E0C                     u2731:
  5438  002E0C  EF0C  F017         	goto	l2990
  5439  002E10                     u2730:
  5440  002E10  6C19               	negf	___awmod@divisor^0,c
  5441  002E12  1E1A               	comf	(___awmod@divisor+1)^0,f,c
  5442  002E14  B0D8               	btfsc	status,0,c
  5443  002E16  2A1A               	incf	(___awmod@divisor+1)^0,f,c
  5444  002E18                     l2990:
  5445  002E18  5019               	movf	___awmod@divisor^0,w,c
  5446  002E1A  101A               	iorwf	(___awmod@divisor+1)^0,w,c
  5447  002E1C  B4D8               	btfsc	status,2,c
  5448  002E1E  EF13  F017         	goto	u2741
  5449  002E22  EF15  F017         	goto	u2740
  5450  002E26                     u2741:
  5451  002E26  EF39  F017         	goto	l3006
  5452  002E2A                     u2740:
  5453  002E2A  0E01               	movlw	1
  5454  002E2C  6E1B               	movwf	___awmod@counter^0,c
  5455  002E2E  EF1D  F017         	goto	l2996
  5456  002E32                     l2994:
  5457  002E32  90D8               	bcf	status,0,c
  5458  002E34  3619               	rlcf	___awmod@divisor^0,f,c
  5459  002E36  361A               	rlcf	(___awmod@divisor+1)^0,f,c
  5460  002E38  2A1B               	incf	___awmod@counter^0,f,c
  5461  002E3A                     l2996:
  5462  002E3A  AE1A               	btfss	(___awmod@divisor+1)^0,7,c
  5463  002E3C  EF22  F017         	goto	u2751
  5464  002E40  EF24  F017         	goto	u2750
  5465  002E44                     u2751:
  5466  002E44  EF19  F017         	goto	l2994
  5467  002E48                     u2750:
  5468  002E48                     l2998:
  5469  002E48  5019               	movf	___awmod@divisor^0,w,c
  5470  002E4A  5C17               	subwf	___awmod@dividend^0,w,c
  5471  002E4C  501A               	movf	(___awmod@divisor+1)^0,w,c
  5472  002E4E  5818               	subwfb	(___awmod@dividend+1)^0,w,c
  5473  002E50  A0D8               	btfss	status,0,c
  5474  002E52  EF2D  F017         	goto	u2761
  5475  002E56  EF2F  F017         	goto	u2760
  5476  002E5A                     u2761:
  5477  002E5A  EF33  F017         	goto	l3002
  5478  002E5E                     u2760:
  5479  002E5E  5019               	movf	___awmod@divisor^0,w,c
  5480  002E60  5E17               	subwf	___awmod@dividend^0,f,c
  5481  002E62  501A               	movf	(___awmod@divisor+1)^0,w,c
  5482  002E64  5A18               	subwfb	(___awmod@dividend+1)^0,f,c
  5483  002E66                     l3002:
  5484  002E66  90D8               	bcf	status,0,c
  5485  002E68  321A               	rrcf	(___awmod@divisor+1)^0,f,c
  5486  002E6A  3219               	rrcf	___awmod@divisor^0,f,c
  5487  002E6C  2E1B               	decfsz	___awmod@counter^0,f,c
  5488  002E6E  EF24  F017         	goto	l2998
  5489  002E72                     l3006:
  5490  002E72  501C               	movf	___awmod@sign^0,w,c
  5491  002E74  B4D8               	btfsc	status,2,c
  5492  002E76  EF3F  F017         	goto	u2771
  5493  002E7A  EF41  F017         	goto	u2770
  5494  002E7E                     u2771:
  5495  002E7E  EF45  F017         	goto	l3010
  5496  002E82                     u2770:
  5497  002E82  6C17               	negf	___awmod@dividend^0,c
  5498  002E84  1E18               	comf	(___awmod@dividend+1)^0,f,c
  5499  002E86  B0D8               	btfsc	status,0,c
  5500  002E88  2A18               	incf	(___awmod@dividend+1)^0,f,c
  5501  002E8A                     l3010:
  5502  002E8A  C017  F017         	movff	___awmod@dividend,?___awmod
  5503  002E8E  C018  F018         	movff	___awmod@dividend+1,?___awmod+1
  5504  002E92  0012               	return		;funcret
  5505  002E94                     __end_of___awmod:
  5506                           	callstack 0
  5507                           
  5508 ;; *************** function ___awdiv *****************
  5509 ;; Defined at:
  5510 ;;		line 7 in file "/opt/microchip/xc8/v2.30/pic/sources/c99/common/awdiv.c"
  5511 ;; Parameters:    Size  Location     Type
  5512 ;;  dividend        2   14[COMRAM] int 
  5513 ;;  divisor         2   16[COMRAM] int 
  5514 ;; Auto vars:     Size  Location     Type
  5515 ;;  quotient        2   20[COMRAM] int 
  5516 ;;  sign            1   19[COMRAM] unsigned char 
  5517 ;;  counter         1   18[COMRAM] unsigned char 
  5518 ;; Return value:  Size  Location     Type
  5519 ;;                  2   14[COMRAM] int 
  5520 ;; Registers used:
  5521 ;;		wreg, status,2, status,0
  5522 ;; Tracked objects:
  5523 ;;		On entry : 0/0
  5524 ;;		On exit  : 0/0
  5525 ;;		Unchanged: 0/0
  5526 ;; Data sizes:     COMRAM   BANK0   BANK1   BANK2   BANK3   BANK4   BANK5   BANK6   BANK7   BANK8   BANK9  BANK10  BANK1
      +1  BANK12  BANK13  BANK14  BANK15
  5527 ;;      Params:         4       0       0       0       0       0       0       0       0       0       0       0       
      +0       0       0       0       0
  5528 ;;      Locals:         4       0       0       0       0       0       0       0       0       0       0       0       
      +0       0       0       0       0
  5529 ;;      Temps:          0       0       0       0       0       0       0       0       0       0       0       0       
      +0       0       0       0       0
  5530 ;;      Totals:         8       0       0       0       0       0       0       0       0       0       0       0       
      +0       0       0       0       0
  5531 ;;Total ram usage:        8 bytes
  5532 ;; Hardware stack levels used:    1
  5533 ;; Hardware stack levels required when called:    3
  5534 ;; This function calls:
  5535 ;;		Nothing
  5536 ;; This function is called by:
  5537 ;;		_update_display
  5538 ;;		_eval_message
  5539 ;;		_send_message
  5540 ;; This function uses a non-reentrant model
  5541 ;;
  5542                           
  5543                           	psect	text17
  5544  002D20                     __ptext17:
  5545                           	callstack 0
  5546  002D20                     ___awdiv:
  5547                           	callstack 26
  5548  002D20  0E00               	movlw	0
  5549  002D22  6E14               	movwf	___awdiv@sign^0,c
  5550  002D24  BE12               	btfsc	(___awdiv@divisor+1)^0,7,c
  5551  002D26  EF99  F016         	goto	u2660
  5552  002D2A  EF97  F016         	goto	u2661
  5553  002D2E                     u2661:
  5554  002D2E  EF9F  F016         	goto	l2942
  5555  002D32                     u2660:
  5556  002D32  6C11               	negf	___awdiv@divisor^0,c
  5557  002D34  1E12               	comf	(___awdiv@divisor+1)^0,f,c
  5558  002D36  B0D8               	btfsc	status,0,c
  5559  002D38  2A12               	incf	(___awdiv@divisor+1)^0,f,c
  5560  002D3A  0E01               	movlw	1
  5561  002D3C  6E14               	movwf	___awdiv@sign^0,c
  5562  002D3E                     l2942:
  5563  002D3E  BE10               	btfsc	(___awdiv@dividend+1)^0,7,c
  5564  002D40  EFA6  F016         	goto	u2670
  5565  002D44  EFA4  F016         	goto	u2671
  5566  002D48                     u2671:
  5567  002D48  EFAC  F016         	goto	l2948
  5568  002D4C                     u2670:
  5569  002D4C  6C0F               	negf	___awdiv@dividend^0,c
  5570  002D4E  1E10               	comf	(___awdiv@dividend+1)^0,f,c
  5571  002D50  B0D8               	btfsc	status,0,c
  5572  002D52  2A10               	incf	(___awdiv@dividend+1)^0,f,c
  5573  002D54  0E01               	movlw	1
  5574  002D56  1A14               	xorwf	___awdiv@sign^0,f,c
  5575  002D58                     l2948:
  5576  002D58  0E00               	movlw	0
  5577  002D5A  6E16               	movwf	(___awdiv@quotient+1)^0,c
  5578  002D5C  0E00               	movlw	0
  5579  002D5E  6E15               	movwf	___awdiv@quotient^0,c
  5580  002D60  5011               	movf	___awdiv@divisor^0,w,c
  5581  002D62  1012               	iorwf	(___awdiv@divisor+1)^0,w,c
  5582  002D64  B4D8               	btfsc	status,2,c
  5583  002D66  EFB7  F016         	goto	u2681
  5584  002D6A  EFB9  F016         	goto	u2680
  5585  002D6E                     u2681:
  5586  002D6E  EFE1  F016         	goto	l2970
  5587  002D72                     u2680:
  5588  002D72  0E01               	movlw	1
  5589  002D74  6E13               	movwf	___awdiv@counter^0,c
  5590  002D76  EFC1  F016         	goto	l2956
  5591  002D7A                     l2954:
  5592  002D7A  90D8               	bcf	status,0,c
  5593  002D7C  3611               	rlcf	___awdiv@divisor^0,f,c
  5594  002D7E  3612               	rlcf	(___awdiv@divisor+1)^0,f,c
  5595  002D80  2A13               	incf	___awdiv@counter^0,f,c
  5596  002D82                     l2956:
  5597  002D82  AE12               	btfss	(___awdiv@divisor+1)^0,7,c
  5598  002D84  EFC6  F016         	goto	u2691
  5599  002D88  EFC8  F016         	goto	u2690
  5600  002D8C                     u2691:
  5601  002D8C  EFBD  F016         	goto	l2954
  5602  002D90                     u2690:
  5603  002D90                     l2958:
  5604  002D90  90D8               	bcf	status,0,c
  5605  002D92  3615               	rlcf	___awdiv@quotient^0,f,c
  5606  002D94  3616               	rlcf	(___awdiv@quotient+1)^0,f,c
  5607  002D96  5011               	movf	___awdiv@divisor^0,w,c
  5608  002D98  5C0F               	subwf	___awdiv@dividend^0,w,c
  5609  002D9A  5012               	movf	(___awdiv@divisor+1)^0,w,c
  5610  002D9C  5810               	subwfb	(___awdiv@dividend+1)^0,w,c
  5611  002D9E  A0D8               	btfss	status,0,c
  5612  002DA0  EFD4  F016         	goto	u2701
  5613  002DA4  EFD6  F016         	goto	u2700
  5614  002DA8                     u2701:
  5615  002DA8  EFDB  F016         	goto	l2966
  5616  002DAC                     u2700:
  5617  002DAC  5011               	movf	___awdiv@divisor^0,w,c
  5618  002DAE  5E0F               	subwf	___awdiv@dividend^0,f,c
  5619  002DB0  5012               	movf	(___awdiv@divisor+1)^0,w,c
  5620  002DB2  5A10               	subwfb	(___awdiv@dividend+1)^0,f,c
  5621  002DB4  8015               	bsf	___awdiv@quotient^0,0,c
  5622  002DB6                     l2966:
  5623  002DB6  90D8               	bcf	status,0,c
  5624  002DB8  3212               	rrcf	(___awdiv@divisor+1)^0,f,c
  5625  002DBA  3211               	rrcf	___awdiv@divisor^0,f,c
  5626  002DBC  2E13               	decfsz	___awdiv@counter^0,f,c
  5627  002DBE  EFC8  F016         	goto	l2958
  5628  002DC2                     l2970:
  5629  002DC2  5014               	movf	___awdiv@sign^0,w,c
  5630  002DC4  B4D8               	btfsc	status,2,c
  5631  002DC6  EFE7  F016         	goto	u2711
  5632  002DCA  EFE9  F016         	goto	u2710
  5633  002DCE                     u2711:
  5634  002DCE  EFED  F016         	goto	l2974
  5635  002DD2                     u2710:
  5636  002DD2  6C15               	negf	___awdiv@quotient^0,c
  5637  002DD4  1E16               	comf	(___awdiv@quotient+1)^0,f,c
  5638  002DD6  B0D8               	btfsc	status,0,c
  5639  002DD8  2A16               	incf	(___awdiv@quotient+1)^0,f,c
  5640  002DDA                     l2974:
  5641  002DDA  C015  F00F         	movff	___awdiv@quotient,?___awdiv
  5642  002DDE  C016  F010         	movff	___awdiv@quotient+1,?___awdiv+1
  5643  002DE2  0012               	return		;funcret
  5644  002DE4                     __end_of___awdiv:
  5645                           	callstack 0
  5646                           
  5647 ;; *************** function _buf_pop *****************
  5648 ;; Defined at:
  5649 ;;		line 268 in file "main.c"
  5650 ;; Parameters:    Size  Location     Type
  5651 ;;  buf             1    wreg     enum E4894
  5652 ;; Auto vars:     Size  Location     Type
  5653 ;;  buf             1   22[COMRAM] enum E4894
  5654 ;;  v               1   21[COMRAM] unsigned char 
  5655 ;; Return value:  Size  Location     Type
  5656 ;;                  1    wreg      unsigned char 
  5657 ;; Registers used:
  5658 ;;		wreg, fsr1l, fsr1h, fsr2l, fsr2h, status,2, status,0, cstack
  5659 ;; Tracked objects:
  5660 ;;		On entry : 0/0
  5661 ;;		On exit  : 0/0
  5662 ;;		Unchanged: 0/0
  5663 ;; Data sizes:     COMRAM   BANK0   BANK1   BANK2   BANK3   BANK4   BANK5   BANK6   BANK7   BANK8   BANK9  BANK10  BANK1
      +1  BANK12  BANK13  BANK14  BANK15
  5664 ;;      Params:         0       0       0       0       0       0       0       0       0       0       0       0       
      +0       0       0       0       0
  5665 ;;      Locals:         2       0       0       0       0       0       0       0       0       0       0       0       
      +0       0       0       0       0
  5666 ;;      Temps:          2       0       0       0       0       0       0       0       0       0       0       0       
      +0       0       0       0       0
  5667 ;;      Totals:         4       0       0       0       0       0       0       0       0       0       0       0       
      +0       0       0       0       0
  5668 ;;Total ram usage:        4 bytes
  5669 ;; Hardware stack levels used:    1
  5670 ;; Hardware stack levels required when called:    4
  5671 ;; This function calls:
  5672 ;;		_buf_isempty
  5673 ;; This function is called by:
  5674 ;;		_receive_message
  5675 ;; This function uses a non-reentrant model
  5676 ;;
  5677                           
  5678                           	psect	text18
  5679  002FD8                     __ptext18:
  5680                           	callstack 0
  5681  002FD8                     _buf_pop:
  5682                           	callstack 25
  5683                           
  5684                           ;incstack = 0
  5685                           ;buf_pop@buf stored from wreg
  5686  002FD8  6E17               	movwf	buf_pop@buf^0,c
  5687  002FDA                     
  5688                           ;main.c: 269:     uint8_t v;;main.c: 270:     if (buf_isempty(buf)) {
  5689  002FDA  5017               	movf	buf_pop@buf^0,w,c
  5690  002FDC  EC23  F01A         	call	_buf_isempty
  5691  002FE0  500F               	movf	?_buf_isempty^0,w,c
  5692  002FE2  1010               	iorwf	(?_buf_isempty+1)^0,w,c
  5693  002FE4  B4D8               	btfsc	status,2,c
  5694  002FE6  EFF7  F017         	goto	u1591
  5695  002FEA  EFF9  F017         	goto	u1590
  5696  002FEE                     u1591:
  5697  002FEE  EFFC  F017         	goto	l2170
  5698  002FF2                     u1590:
  5699  002FF2                     
  5700                           ;main.c: 271:         return 0;
  5701  002FF2  0E00               	movlw	0
  5702  002FF4  EF36  F018         	goto	l184
  5703  002FF8                     l2170:
  5704                           
  5705                           ;main.c: 274:         if (buf == INBUF) v = inbuf[tail[buf]];
  5706  002FF8  5017               	movf	buf_pop@buf^0,w,c
  5707  002FFA  A4D8               	btfss	status,2,c
  5708  002FFC  EF02  F018         	goto	u1601
  5709  003000  EF04  F018         	goto	u1600
  5710  003004                     u1601:
  5711  003004  EF17  F018         	goto	l2174
  5712  003008                     u1600:
  5713  003008  0E42               	movlw	low _tail
  5714  00300A  2417               	addwf	buf_pop@buf^0,w,c
  5715  00300C  6ED9               	movwf	fsr2l,c
  5716  00300E  6ADA               	clrf	fsr2h,c
  5717  003010  0E00               	movlw	high _tail
  5718  003012  22DA               	addwfc	fsr2h,f,c
  5719  003014  50DF               	movf	indf2,w,c
  5720  003016  6E14               	movwf	??_buf_pop^0,c
  5721  003018  6A15               	clrf	(??_buf_pop+1)^0,c
  5722  00301A  0E00               	movlw	low _inbuf
  5723  00301C  2414               	addwf	??_buf_pop^0,w,c
  5724  00301E  6ED9               	movwf	fsr2l,c
  5725  003020  0E01               	movlw	high _inbuf
  5726  003022  2015               	addwfc	(??_buf_pop+1)^0,w,c
  5727  003024  6EDA               	movwf	fsr2h,c
  5728  003026  50DF               	movf	indf2,w,c
  5729  003028  6E16               	movwf	buf_pop@v^0,c
  5730  00302A  EF28  F018         	goto	l187
  5731  00302E                     l2174:
  5732  00302E  0E42               	movlw	low _tail
  5733  003030  2417               	addwf	buf_pop@buf^0,w,c
  5734  003032  6ED9               	movwf	fsr2l,c
  5735  003034  6ADA               	clrf	fsr2h,c
  5736  003036  0E00               	movlw	high _tail
  5737  003038  22DA               	addwfc	fsr2h,f,c
  5738  00303A  50DF               	movf	indf2,w,c
  5739  00303C  6E14               	movwf	??_buf_pop^0,c
  5740  00303E  6A15               	clrf	(??_buf_pop+1)^0,c
  5741  003040  0E00               	movlw	low _outbuf
  5742  003042  2414               	addwf	??_buf_pop^0,w,c
  5743  003044  6ED9               	movwf	fsr2l,c
  5744  003046  0E02               	movlw	high _outbuf
  5745  003048  2015               	addwfc	(??_buf_pop+1)^0,w,c
  5746  00304A  6EDA               	movwf	fsr2h,c
  5747  00304C  50DF               	movf	indf2,w,c
  5748  00304E  6E16               	movwf	buf_pop@v^0,c
  5749  003050                     l187:
  5750                           
  5751                           ;main.c: 276:         tail[buf]++;
  5752  003050  0E42               	movlw	low _tail
  5753  003052  2417               	addwf	buf_pop@buf^0,w,c
  5754  003054  6ED9               	movwf	fsr2l,c
  5755  003056  6ADA               	clrf	fsr2h,c
  5756  003058  0E00               	movlw	high _tail
  5757  00305A  22DA               	addwfc	fsr2h,f,c
  5758  00305C  2ADF               	incf	indf2,f,c
  5759                           
  5760                           ;main.c: 278:         if (tail[buf] == 256) tail[buf] = 0;
  5761  00305E  0E42               	movlw	low _tail
  5762  003060  2417               	addwf	buf_pop@buf^0,w,c
  5763  003062  6ED9               	movwf	fsr2l,c
  5764  003064  6ADA               	clrf	fsr2h,c
  5765  003066  0E00               	movlw	high _tail
  5766  003068  22DA               	addwfc	fsr2h,f,c
  5767  00306A                     
  5768                           ;main.c: 279:         return v;
  5769  00306A  5016               	movf	buf_pop@v^0,w,c
  5770  00306C                     l184:
  5771  00306C  0012               	return		;funcret
  5772  00306E                     __end_of_buf_pop:
  5773                           	callstack 0
  5774                           
  5775 ;; *************** function _buf_isempty *****************
  5776 ;; Defined at:
  5777 ;;		line 249 in file "main.c"
  5778 ;; Parameters:    Size  Location     Type
  5779 ;;  typ             1    wreg     enum E4894
  5780 ;; Auto vars:     Size  Location     Type
  5781 ;;  typ             1   18[COMRAM] enum E4894
  5782 ;; Return value:  Size  Location     Type
  5783 ;;                  2   14[COMRAM] int 
  5784 ;; Registers used:
  5785 ;;		wreg, fsr1l, fsr1h, fsr2l, fsr2h, status,2, status,0
  5786 ;; Tracked objects:
  5787 ;;		On entry : 0/0
  5788 ;;		On exit  : 0/0
  5789 ;;		Unchanged: 0/0
  5790 ;; Data sizes:     COMRAM   BANK0   BANK1   BANK2   BANK3   BANK4   BANK5   BANK6   BANK7   BANK8   BANK9  BANK10  BANK1
      +1  BANK12  BANK13  BANK14  BANK15
  5791 ;;      Params:         2       0       0       0       0       0       0       0       0       0       0       0       
      +0       0       0       0       0
  5792 ;;      Locals:         1       0       0       0       0       0       0       0       0       0       0       0       
      +0       0       0       0       0
  5793 ;;      Temps:          2       0       0       0       0       0       0       0       0       0       0       0       
      +0       0       0       0       0
  5794 ;;      Totals:         5       0       0       0       0       0       0       0       0       0       0       0       
      +0       0       0       0       0
  5795 ;;Total ram usage:        5 bytes
  5796 ;; Hardware stack levels used:    1
  5797 ;; Hardware stack levels required when called:    3
  5798 ;; This function calls:
  5799 ;;		Nothing
  5800 ;; This function is called by:
  5801 ;;		_buf_pop
  5802 ;;		_receive_message
  5803 ;; This function uses a non-reentrant model
  5804 ;;
  5805                           
  5806                           	psect	text19
  5807  003446                     __ptext19:
  5808                           	callstack 0
  5809  003446                     _buf_isempty:
  5810                           	callstack 25
  5811                           
  5812                           ;incstack = 0
  5813                           ;buf_isempty@typ stored from wreg
  5814  003446  6E13               	movwf	buf_isempty@typ^0,c
  5815  003448                     
  5816                           ;main.c: 250:     if (head[typ] == tail[typ]) return 1;
  5817  003448  0E42               	movlw	low _tail
  5818  00344A  2413               	addwf	buf_isempty@typ^0,w,c
  5819  00344C  6ED9               	movwf	fsr2l,c
  5820  00344E  6ADA               	clrf	fsr2h,c
  5821  003450  0E00               	movlw	high _tail
  5822  003452  22DA               	addwfc	fsr2h,f,c
  5823  003454  0E44               	movlw	low _head
  5824  003456  2413               	addwf	buf_isempty@typ^0,w,c
  5825  003458  6EE1               	movwf	fsr1l,c
  5826  00345A  6AE2               	clrf	fsr1h,c
  5827  00345C  0E00               	movlw	high _head
  5828  00345E  22E2               	addwfc	fsr1h,f,c
  5829  003460  50DE               	movf	postinc2,w,c
  5830  003462  18E6               	xorwf	postinc1,w,c
  5831  003464  A4D8               	btfss	status,2,c
  5832  003466  EF37  F01A         	goto	u1401
  5833  00346A  EF39  F01A         	goto	u1400
  5834  00346E                     u1401:
  5835  00346E  EF3F  F01A         	goto	l2032
  5836  003472                     u1400:
  5837  003472  0E00               	movlw	0
  5838  003474  6E10               	movwf	(?_buf_isempty+1)^0,c
  5839  003476  0E01               	movlw	1
  5840  003478  6E0F               	movwf	?_buf_isempty^0,c
  5841  00347A  EF43  F01A         	goto	l173
  5842  00347E                     l2032:
  5843  00347E  0E00               	movlw	0
  5844  003480  6E10               	movwf	(?_buf_isempty+1)^0,c
  5845  003482  0E00               	movlw	0
  5846  003484  6E0F               	movwf	?_buf_isempty^0,c
  5847  003486                     l173:
  5848  003486  0012               	return		;funcret
  5849  003488                     __end_of_buf_isempty:
  5850                           	callstack 0
  5851                           
  5852 ;; *************** function _init_ports *****************
  5853 ;; Defined at:
  5854 ;;		line 303 in file "main.c"
  5855 ;; Parameters:    Size  Location     Type
  5856 ;;		None
  5857 ;; Auto vars:     Size  Location     Type
  5858 ;;		None
  5859 ;; Return value:  Size  Location     Type
  5860 ;;                  1    wreg      void 
  5861 ;; Registers used:
  5862 ;;		wreg, status,2
  5863 ;; Tracked objects:
  5864 ;;		On entry : 0/0
  5865 ;;		On exit  : 0/0
  5866 ;;		Unchanged: 0/0
  5867 ;; Data sizes:     COMRAM   BANK0   BANK1   BANK2   BANK3   BANK4   BANK5   BANK6   BANK7   BANK8   BANK9  BANK10  BANK1
      +1  BANK12  BANK13  BANK14  BANK15
  5868 ;;      Params:         0       0       0       0       0       0       0       0       0       0       0       0       
      +0       0       0       0       0
  5869 ;;      Locals:         0       0       0       0       0       0       0       0       0       0       0       0       
      +0       0       0       0       0
  5870 ;;      Temps:          0       0       0       0       0       0       0       0       0       0       0       0       
      +0       0       0       0       0
  5871 ;;      Totals:         0       0       0       0       0       0       0       0       0       0       0       0       
      +0       0       0       0       0
  5872 ;;Total ram usage:        0 bytes
  5873 ;; Hardware stack levels used:    1
  5874 ;; Hardware stack levels required when called:    3
  5875 ;; This function calls:
  5876 ;;		Nothing
  5877 ;; This function is called by:
  5878 ;;		_main
  5879 ;; This function uses a non-reentrant model
  5880 ;;
  5881                           
  5882                           	psect	text20
  5883  00354A                     __ptext20:
  5884                           	callstack 0
  5885  00354A                     _init_ports:
  5886                           	callstack 27
  5887  00354A                     
  5888                           ;main.c: 304:     TRISB = 0x10;
  5889  00354A  0E10               	movlw	16
  5890  00354C  6E93               	movwf	147,c	;volatile
  5891                           
  5892                           ;main.c: 305:     TRISH = 0x10;
  5893  00354E  0E10               	movlw	16
  5894  003550  6E99               	movwf	153,c	;volatile
  5895                           
  5896                           ;main.c: 306:     TRISJ = 0x00;
  5897  003552  0E00               	movlw	0
  5898  003554  6E9A               	movwf	154,c	;volatile
  5899  003556  0012               	return		;funcret
  5900  003558                     __end_of_init_ports:
  5901                           	callstack 0
  5902                           
  5903 ;; *************** function _init_others *****************
  5904 ;; Defined at:
  5905 ;;		line 310 in file "main.c"
  5906 ;; Parameters:    Size  Location     Type
  5907 ;;		None
  5908 ;; Auto vars:     Size  Location     Type
  5909 ;;  k               2   20[COMRAM] int 
  5910 ;; Return value:  Size  Location     Type
  5911 ;;                  1    wreg      void 
  5912 ;; Registers used:
  5913 ;;		wreg, fsr2l, fsr2h, status,2, status,0, prodl, prodh, cstack
  5914 ;; Tracked objects:
  5915 ;;		On entry : 0/0
  5916 ;;		On exit  : 0/0
  5917 ;;		Unchanged: 0/0
  5918 ;; Data sizes:     COMRAM   BANK0   BANK1   BANK2   BANK3   BANK4   BANK5   BANK6   BANK7   BANK8   BANK9  BANK10  BANK1
      +1  BANK12  BANK13  BANK14  BANK15
  5919 ;;      Params:         0       0       0       0       0       0       0       0       0       0       0       0       
      +0       0       0       0       0
  5920 ;;      Locals:         2       0       0       0       0       0       0       0       0       0       0       0       
      +0       0       0       0       0
  5921 ;;      Temps:          0       0       0       0       0       0       0       0       0       0       0       0       
      +0       0       0       0       0
  5922 ;;      Totals:         2       0       0       0       0       0       0       0       0       0       0       0       
      +0       0       0       0       0
  5923 ;;Total ram usage:        2 bytes
  5924 ;; Hardware stack levels used:    1
  5925 ;; Hardware stack levels required when called:    4
  5926 ;; This function calls:
  5927 ;;		___wmul
  5928 ;; This function is called by:
  5929 ;;		_main
  5930 ;; This function uses a non-reentrant model
  5931 ;;
  5932                           
  5933                           	psect	text21
  5934  002C54                     __ptext21:
  5935                           	callstack 0
  5936  002C54                     _init_others:
  5937                           	callstack 26
  5938  002C54                     
  5939                           ;main.c: 311:     INTCONbits.PEIE = 1;
  5940  002C54  8CF2               	bsf	242,6,c	;volatile
  5941                           
  5942                           ;main.c: 312:     INTCONbits.GIE = 1;
  5943  002C56  8EF2               	bsf	242,7,c	;volatile
  5944                           
  5945                           ;main.c: 313:     INTCONbits.TMR0IE = 1;
  5946  002C58  8AF2               	bsf	242,5,c	;volatile
  5947                           
  5948                           ;main.c: 314:     INTCONbits.RBIE = 1;
  5949  002C5A  86F2               	bsf	242,3,c	;volatile
  5950  002C5C                     
  5951                           ;main.c: 315:     time_counter = 0;
  5952  002C5C  0E00               	movlw	0
  5953  002C5E  6E4C               	movwf	(_time_counter+1)^0,c
  5954  002C60  0E00               	movlw	0
  5955  002C62  6E4B               	movwf	_time_counter^0,c
  5956                           
  5957                           ;main.c: 316:     T0CON = 0b10001000;
  5958  002C64  0E88               	movlw	136
  5959  002C66  6ED5               	movwf	213,c	;volatile
  5960                           
  5961                           ;main.c: 317:     TMR0H = 0x3C;
  5962  002C68  0E3C               	movlw	60
  5963  002C6A  6ED7               	movwf	215,c	;volatile
  5964                           
  5965                           ;main.c: 318:     TMR0L = 0xAF;
  5966  002C6C  0EAF               	movlw	175
  5967  002C6E  6ED6               	movwf	214,c	;volatile
  5968                           
  5969                           ;main.c: 320:     TXSTA1 = 0x04;
  5970  002C70  0E04               	movlw	4
  5971  002C72  6EAC               	movwf	172,c	;volatile
  5972                           
  5973                           ;main.c: 321:     RCSTA1 = 0x90;
  5974  002C74  0E90               	movlw	144
  5975  002C76  6EAB               	movwf	171,c	;volatile
  5976  002C78                     
  5977                           ;main.c: 322:     BAUDCON1bits.BRG16 = 1;
  5978  002C78  867E               	bsf	126,3,c	;volatile
  5979                           
  5980                           ;main.c: 323:     SPBRGH1 = 0;
  5981  002C7A  0E00               	movlw	0
  5982  002C7C  6E7F               	movwf	127,c	;volatile
  5983                           
  5984                           ;main.c: 324:     SPBRG1 = 86;
  5985  002C7E  0E56               	movlw	86
  5986  002C80  6EAF               	movwf	175,c	;volatile
  5987                           
  5988                           ;main.c: 329:     for (int k = 0; k < 4; k++) {
  5989  002C82  0E00               	movlw	0
  5990  002C84  6E16               	movwf	(init_others@k+1)^0,c
  5991  002C86  0E00               	movlw	0
  5992  002C88  6E15               	movwf	init_others@k^0,c
  5993  002C8A                     l3384:
  5994                           
  5995                           ;main.c: 330:         park.floors[k].level = 'A' + k;
  5996  002C8A  C015  F00F         	movff	init_others@k,___wmul@multiplier
  5997  002C8E  C016  F010         	movff	init_others@k+1,___wmul@multiplier+1
  5998  002C92  0E00               	movlw	0
  5999  002C94  6E12               	movwf	(___wmul@multiplicand+1)^0,c
  6000  002C96  0E53               	movlw	83
  6001  002C98  6E11               	movwf	___wmul@multiplicand^0,c
  6002  002C9A  EC84  F01A         	call	___wmul	;wreg free
  6003  002C9E  0E02               	movlw	low (_park+2)
  6004  002CA0  240F               	addwf	?___wmul^0,w,c
  6005  002CA2  6ED9               	movwf	fsr2l,c
  6006  002CA4  0E03               	movlw	high (_park+2)
  6007  002CA6  2010               	addwfc	(?___wmul+1)^0,w,c
  6008  002CA8  6EDA               	movwf	fsr2h,c
  6009  002CAA  5015               	movf	init_others@k^0,w,c
  6010  002CAC  0F41               	addlw	65
  6011  002CAE  6EDF               	movwf	indf2,c
  6012                           
  6013                           ;main.c: 331:         park.floors[k].available_f = 10;
  6014  002CB0  C015  F00F         	movff	init_others@k,___wmul@multiplier
  6015  002CB4  C016  F010         	movff	init_others@k+1,___wmul@multiplier+1
  6016  002CB8  0E00               	movlw	0
  6017  002CBA  6E12               	movwf	(___wmul@multiplicand+1)^0,c
  6018  002CBC  0E53               	movlw	83
  6019  002CBE  6E11               	movwf	___wmul@multiplicand^0,c
  6020  002CC0  EC84  F01A         	call	___wmul	;wreg free
  6021  002CC4  0E53               	movlw	low (_park+83)
  6022  002CC6  240F               	addwf	?___wmul^0,w,c
  6023  002CC8  6ED9               	movwf	fsr2l,c
  6024  002CCA  0E03               	movlw	high (_park+83)
  6025  002CCC  2010               	addwfc	(?___wmul+1)^0,w,c
  6026  002CCE  6EDA               	movwf	fsr2h,c
  6027  002CD0  0E0A               	movlw	10
  6028  002CD2  6EDE               	movwf	postinc2,c
  6029  002CD4  0E00               	movlw	0
  6030  002CD6  6EDD               	movwf	postdec2,c
  6031  002CD8                     
  6032                           ;main.c: 332:     }
  6033  002CD8  4A15               	infsnz	init_others@k^0,f,c
  6034  002CDA  2A16               	incf	(init_others@k+1)^0,f,c
  6035  002CDC  BE16               	btfsc	(init_others@k+1)^0,7,c
  6036  002CDE  EF7A  F016         	goto	u3291
  6037  002CE2  5016               	movf	(init_others@k+1)^0,w,c
  6038  002CE4  E109               	bnz	u3290
  6039  002CE6  0E04               	movlw	4
  6040  002CE8  5C15               	subwf	init_others@k^0,w,c
  6041  002CEA  A0D8               	btfss	status,0,c
  6042  002CEC  EF7A  F016         	goto	u3291
  6043  002CF0  EF7C  F016         	goto	u3290
  6044  002CF4                     u3291:
  6045  002CF4  EF45  F016         	goto	l3384
  6046  002CF8                     u3290:
  6047  002CF8                     
  6048                           ;main.c: 333:     park.available = 40;
  6049  002CF8  0E28               	movlw	40
  6050  002CFA  CFE8 F300          	movff	wreg,_park
  6051  002CFE  0E00               	movlw	0
  6052  002D00  CFE8 F301          	movff	wreg,_park+1
  6053  002D04                     
  6054                           ;main.c: 334:     q.front = 0;
  6055  002D04  0E00               	movlw	0
  6056  002D06  0100               	movlb	0	; () banked
  6057  002D08  6F81               	movwf	(_q+33)& (0+255),b
  6058  002D0A  0E00               	movlw	0
  6059  002D0C  6F80               	movwf	(_q+32)& (0+255),b
  6060                           
  6061                           ;main.c: 335:     q.count = 0;
  6062  002D0E  0E00               	movlw	0
  6063  002D10  6F83               	movwf	(_q+35)& (0+255),b
  6064  002D12  0E00               	movlw	0
  6065  002D14  6F82               	movwf	(_q+34)& (0+255),b
  6066  002D16                     
  6067                           ; BSR set to: 0
  6068                           ;main.c: 336:     PIE1bits.TX1IE = 1;
  6069  002D16  889D               	bsf	157,4,c	;volatile
  6070  002D18                     
  6071                           ; BSR set to: 0
  6072                           ;main.c: 337:     PIE1bits.RC1IE = 1;
  6073  002D18  8A9D               	bsf	157,5,c	;volatile
  6074                           
  6075                           ;main.c: 338:     PIR1 = 0;
  6076  002D1A  0E00               	movlw	0
  6077  002D1C  6E9E               	movwf	158,c	;volatile
  6078  002D1E                     
  6079                           ; BSR set to: 0
  6080  002D1E  0012               	return		;funcret
  6081  002D20                     __end_of_init_others:
  6082                           	callstack 0
  6083                           
  6084 ;; *************** function ___wmul *****************
  6085 ;; Defined at:
  6086 ;;		line 15 in file "/opt/microchip/xc8/v2.30/pic/sources/c99/common/Umul16.c"
  6087 ;; Parameters:    Size  Location     Type
  6088 ;;  multiplier      2   14[COMRAM] unsigned int 
  6089 ;;  multiplicand    2   16[COMRAM] unsigned int 
  6090 ;; Auto vars:     Size  Location     Type
  6091 ;;  product         2   18[COMRAM] unsigned int 
  6092 ;; Return value:  Size  Location     Type
  6093 ;;                  2   14[COMRAM] unsigned int 
  6094 ;; Registers used:
  6095 ;;		wreg, status,2, status,0, prodl, prodh
  6096 ;; Tracked objects:
  6097 ;;		On entry : 0/0
  6098 ;;		On exit  : 0/0
  6099 ;;		Unchanged: 0/0
  6100 ;; Data sizes:     COMRAM   BANK0   BANK1   BANK2   BANK3   BANK4   BANK5   BANK6   BANK7   BANK8   BANK9  BANK10  BANK1
      +1  BANK12  BANK13  BANK14  BANK15
  6101 ;;      Params:         4       0       0       0       0       0       0       0       0       0       0       0       
      +0       0       0       0       0
  6102 ;;      Locals:         2       0       0       0       0       0       0       0       0       0       0       0       
      +0       0       0       0       0
  6103 ;;      Temps:          0       0       0       0       0       0       0       0       0       0       0       0       
      +0       0       0       0       0
  6104 ;;      Totals:         6       0       0       0       0       0       0       0       0       0       0       0       
      +0       0       0       0       0
  6105 ;;Total ram usage:        6 bytes
  6106 ;; Hardware stack levels used:    1
  6107 ;; Hardware stack levels required when called:    3
  6108 ;; This function calls:
  6109 ;;		Nothing
  6110 ;; This function is called by:
  6111 ;;		_find_park_available_slot
  6112 ;;		_find_subscribed
  6113 ;;		_find_parked
  6114 ;;		_update_display
  6115 ;;		_init_others
  6116 ;; This function uses a non-reentrant model
  6117 ;;
  6118                           
  6119                           	psect	text22
  6120  003508                     __ptext22:
  6121                           	callstack 0
  6122  003508                     ___wmul:
  6123                           	callstack 26
  6124  003508  500F               	movf	___wmul@multiplier^0,w,c
  6125  00350A  0211               	mulwf	___wmul@multiplicand^0,c
  6126  00350C  CFF3 F013          	movff	prodl,___wmul@product
  6127  003510  CFF4 F014          	movff	prodh,___wmul@product+1
  6128  003514  500F               	movf	___wmul@multiplier^0,w,c
  6129  003516  0212               	mulwf	(___wmul@multiplicand+1)^0,c
  6130  003518  50F3               	movf	243,w,c
  6131  00351A  2614               	addwf	(___wmul@product+1)^0,f,c
  6132  00351C  5010               	movf	(___wmul@multiplier+1)^0,w,c
  6133  00351E  0211               	mulwf	___wmul@multiplicand^0,c
  6134  003520  50F3               	movf	243,w,c
  6135  003522  2614               	addwf	(___wmul@product+1)^0,f,c
  6136  003524  C013  F00F         	movff	___wmul@product,?___wmul
  6137  003528  C014  F010         	movff	___wmul@product+1,?___wmul+1
  6138  00352C  0012               	return		;funcret
  6139  00352E                     __end_of___wmul:
  6140                           	callstack 0
  6141                           
  6142 ;; *************** function _init_adc *****************
  6143 ;; Defined at:
  6144 ;;		line 293 in file "main.c"
  6145 ;; Parameters:    Size  Location     Type
  6146 ;;		None
  6147 ;; Auto vars:     Size  Location     Type
  6148 ;;		None
  6149 ;; Return value:  Size  Location     Type
  6150 ;;                  1    wreg      void 
  6151 ;; Registers used:
  6152 ;;		wreg, status,2
  6153 ;; Tracked objects:
  6154 ;;		On entry : 0/0
  6155 ;;		On exit  : 0/0
  6156 ;;		Unchanged: 0/0
  6157 ;; Data sizes:     COMRAM   BANK0   BANK1   BANK2   BANK3   BANK4   BANK5   BANK6   BANK7   BANK8   BANK9  BANK10  BANK1
      +1  BANK12  BANK13  BANK14  BANK15
  6158 ;;      Params:         0       0       0       0       0       0       0       0       0       0       0       0       
      +0       0       0       0       0
  6159 ;;      Locals:         0       0       0       0       0       0       0       0       0       0       0       0       
      +0       0       0       0       0
  6160 ;;      Temps:          0       0       0       0       0       0       0       0       0       0       0       0       
      +0       0       0       0       0
  6161 ;;      Totals:         0       0       0       0       0       0       0       0       0       0       0       0       
      +0       0       0       0       0
  6162 ;;Total ram usage:        0 bytes
  6163 ;; Hardware stack levels used:    1
  6164 ;; Hardware stack levels required when called:    3
  6165 ;; This function calls:
  6166 ;;		Nothing
  6167 ;; This function is called by:
  6168 ;;		_main
  6169 ;; This function uses a non-reentrant model
  6170 ;;
  6171                           
  6172                           	psect	text23
  6173  00352E                     __ptext23:
  6174                           	callstack 0
  6175  00352E                     _init_adc:
  6176                           	callstack 27
  6177  00352E                     
  6178                           ;main.c: 294:     ADCON0bits.CHS = 0b1100;
  6179  00352E  50C2               	movf	194,w,c	;volatile
  6180  003530  0BC3               	andlw	-61
  6181  003532  0930               	iorlw	48
  6182  003534  6EC2               	movwf	194,c	;volatile
  6183  003536                     
  6184                           ;main.c: 295:     ADCON0bits.ADON = 1;
  6185  003536  80C2               	bsf	194,0,c	;volatile
  6186                           
  6187                           ;main.c: 296:     ADCON1 = 0x00;
  6188  003538  0E00               	movlw	0
  6189  00353A  6EC1               	movwf	193,c	;volatile
  6190                           
  6191                           ;main.c: 298:     ADCON2 = 0b10100110;
  6192  00353C  0EA6               	movlw	166
  6193  00353E  6EC0               	movwf	192,c	;volatile
  6194                           
  6195                           ;main.c: 299:     ADRESH = 0x00;
  6196  003540  0E00               	movlw	0
  6197  003542  6EC4               	movwf	196,c	;volatile
  6198                           
  6199                           ;main.c: 300:     ADRESL = 0x00;
  6200  003544  0E00               	movlw	0
  6201  003546  6EC3               	movwf	195,c	;volatile
  6202  003548  0012               	return		;funcret
  6203  00354A                     __end_of_init_adc:
  6204                           	callstack 0
  6205                           
  6206 ;; *************** function _check_level *****************
  6207 ;; Defined at:
  6208 ;;		line 564 in file "main.c"
  6209 ;; Parameters:    Size  Location     Type
  6210 ;;		None
  6211 ;; Auto vars:     Size  Location     Type
  6212 ;;  adc_val         2   16[COMRAM] unsigned int 
  6213 ;; Return value:  Size  Location     Type
  6214 ;;                  1    wreg      void 
  6215 ;; Registers used:
  6216 ;;		wreg, status,2, status,0
  6217 ;; Tracked objects:
  6218 ;;		On entry : 0/0
  6219 ;;		On exit  : 0/0
  6220 ;;		Unchanged: 0/0
  6221 ;; Data sizes:     COMRAM   BANK0   BANK1   BANK2   BANK3   BANK4   BANK5   BANK6   BANK7   BANK8   BANK9  BANK10  BANK1
      +1  BANK12  BANK13  BANK14  BANK15
  6222 ;;      Params:         0       0       0       0       0       0       0       0       0       0       0       0       
      +0       0       0       0       0
  6223 ;;      Locals:         2       0       0       0       0       0       0       0       0       0       0       0       
      +0       0       0       0       0
  6224 ;;      Temps:          2       0       0       0       0       0       0       0       0       0       0       0       
      +0       0       0       0       0
  6225 ;;      Totals:         4       0       0       0       0       0       0       0       0       0       0       0       
      +0       0       0       0       0
  6226 ;;Total ram usage:        4 bytes
  6227 ;; Hardware stack levels used:    1
  6228 ;; Hardware stack levels required when called:    3
  6229 ;; This function calls:
  6230 ;;		Nothing
  6231 ;; This function is called by:
  6232 ;;		_main
  6233 ;; This function uses a non-reentrant model
  6234 ;;
  6235                           
  6236                           	psect	text24
  6237  003104                     __ptext24:
  6238                           	callstack 0
  6239  003104                     _check_level:
  6240                           	callstack 27
  6241  003104                     
  6242                           ;main.c: 565:     ADCON0bits.GO = 1;
  6243  003104  82C2               	bsf	194,1,c	;volatile
  6244  003106                     l278:
  6245  003106  B2C2               	btfsc	194,1,c	;volatile
  6246  003108  EF88  F018         	goto	u2211
  6247  00310C  EF8A  F018         	goto	u2210
  6248  003110                     u2211:
  6249  003110  EF83  F018         	goto	l278
  6250  003114                     u2210:
  6251  003114                     
  6252                           ;main.c: 568:     unsigned int adc_val = (ADRESH << 8) + ADRESL;
  6253  003114  50C4               	movf	196,w,c	;volatile
  6254  003116  6E10               	movwf	(??_check_level+1)^0,c
  6255  003118  6A0F               	clrf	??_check_level^0,c
  6256  00311A  50C3               	movf	195,w,c	;volatile
  6257  00311C  240F               	addwf	??_check_level^0,w,c
  6258  00311E  6E11               	movwf	check_level@adc_val^0,c
  6259  003120  0E00               	movlw	0
  6260  003122  2010               	addwfc	(??_check_level+1)^0,w,c
  6261  003124  6E12               	movwf	(check_level@adc_val+1)^0,c
  6262                           
  6263                           ;main.c: 570:     if (adc_val < 256) current_level = 0;
  6264  003126  0412               	decf	(check_level@adc_val+1)^0,w,c
  6265  003128  B0D8               	btfsc	status,0,c
  6266  00312A  EF99  F018         	goto	u2221
  6267  00312E  EF9B  F018         	goto	u2220
  6268  003132                     u2221:
  6269  003132  EFA1  F018         	goto	l2628
  6270  003136                     u2220:
  6271  003136  0E00               	movlw	0
  6272  003138  6E3D               	movwf	(_current_level+1)^0,c
  6273  00313A  0E00               	movlw	0
  6274  00313C  6E3C               	movwf	_current_level^0,c
  6275  00313E  EFC3  F018         	goto	l287
  6276  003142                     l2628:
  6277  003142  0E02               	movlw	2
  6278  003144  5C12               	subwf	(check_level@adc_val+1)^0,w,c
  6279  003146  B0D8               	btfsc	status,0,c
  6280  003148  EFA8  F018         	goto	u2231
  6281  00314C  EFAA  F018         	goto	u2230
  6282  003150                     u2231:
  6283  003150  EFB0  F018         	goto	l2632
  6284  003154                     u2230:
  6285  003154  0E00               	movlw	0
  6286  003156  6E3D               	movwf	(_current_level+1)^0,c
  6287  003158  0E01               	movlw	1
  6288  00315A  6E3C               	movwf	_current_level^0,c
  6289  00315C  EFC3  F018         	goto	l287
  6290  003160                     l2632:
  6291  003160  0E03               	movlw	3
  6292  003162  5C12               	subwf	(check_level@adc_val+1)^0,w,c
  6293  003164  B0D8               	btfsc	status,0,c
  6294  003166  EFB7  F018         	goto	u2241
  6295  00316A  EFB9  F018         	goto	u2240
  6296  00316E                     u2241:
  6297  00316E  EFBF  F018         	goto	l2636
  6298  003172                     u2240:
  6299  003172  0E00               	movlw	0
  6300  003174  6E3D               	movwf	(_current_level+1)^0,c
  6301  003176  0E02               	movlw	2
  6302  003178  6E3C               	movwf	_current_level^0,c
  6303  00317A  EFC3  F018         	goto	l287
  6304  00317E                     l2636:
  6305  00317E  0E00               	movlw	0
  6306  003180  6E3D               	movwf	(_current_level+1)^0,c
  6307  003182  0E03               	movlw	3
  6308  003184  6E3C               	movwf	_current_level^0,c
  6309  003186                     l287:
  6310  003186  0012               	return		;funcret
  6311  003188                     __end_of_check_level:
  6312                           	callstack 0
  6313                           
  6314 ;; *************** function _HandleInterrupt *****************
  6315 ;; Defined at:
  6316 ;;		line 583 in file "main.c"
  6317 ;; Parameters:    Size  Location     Type
  6318 ;;		None
  6319 ;; Auto vars:     Size  Location     Type
  6320 ;;  c               1   13[COMRAM] unsigned char 
  6321 ;; Return value:  Size  Location     Type
  6322 ;;                  1    wreg      void 
  6323 ;; Registers used:
  6324 ;;		wreg, fsr1l, fsr1h, fsr2l, fsr2h, status,2, status,0, cstack
  6325 ;; Tracked objects:
  6326 ;;		On entry : 0/0
  6327 ;;		On exit  : 0/0
  6328 ;;		Unchanged: 0/0
  6329 ;; Data sizes:     COMRAM   BANK0   BANK1   BANK2   BANK3   BANK4   BANK5   BANK6   BANK7   BANK8   BANK9  BANK10  BANK1
      +1  BANK12  BANK13  BANK14  BANK15
  6330 ;;      Params:         0       0       0       0       0       0       0       0       0       0       0       0       
      +0       0       0       0       0
  6331 ;;      Locals:         1       0       0       0       0       0       0       0       0       0       0       0       
      +0       0       0       0       0
  6332 ;;      Temps:          4       0       0       0       0       0       0       0       0       0       0       0       
      +0       0       0       0       0
  6333 ;;      Totals:         5       0       0       0       0       0       0       0       0       0       0       0       
      +0       0       0       0       0
  6334 ;;Total ram usage:        5 bytes
  6335 ;; Hardware stack levels used:    1
  6336 ;; Hardware stack levels required when called:    2
  6337 ;; This function calls:
  6338 ;;		_disable_i
  6339 ;;		_enable_i
  6340 ;;		i2_buf_isempty
  6341 ;;		i2_buf_pop
  6342 ;;		i2_buf_push
  6343 ;; This function is called by:
  6344 ;;		Interrupt level 2
  6345 ;; This function uses a non-reentrant model
  6346 ;;
  6347                           
  6348                           	psect	intcode
  6349  000008                     __pintcode:
  6350                           	callstack 0
  6351  000008                     _HandleInterrupt:
  6352                           	callstack 24
  6353                           
  6354                           ;incstack = 0
  6355  000008  824D               	bsf	int$flags,1,c	;set compiler interrupt flag (level 2)
  6356  00000A  ED37  F015         	call	int_func,f	;refresh shadow registers
  6357                           
  6358                           	psect	intcode_body
  6359  002A6E                     __pintcode_body:
  6360                           	callstack 24
  6361  002A6E                     int_func:
  6362                           	callstack 24
  6363  002A6E  0006               	pop		; remove dummy address from shadow register refresh
  6364  002A70  CFE1 F00A          	movff	fsr1l,??_HandleInterrupt
  6365  002A74  CFE2 F00B          	movff	fsr1h,??_HandleInterrupt+1
  6366  002A78  CFD9 F00C          	movff	fsr2l,??_HandleInterrupt+2
  6367  002A7C  CFDA F00D          	movff	fsr2h,??_HandleInterrupt+3
  6368  002A80                     
  6369                           ;main.c: 585:     if (INTCONbits.T0IF) {
  6370  002A80  A4F2               	btfss	242,2,c	;volatile
  6371  002A82  EF45  F015         	goto	i2u228_41
  6372  002A86  EF47  F015         	goto	i2u228_40
  6373  002A8A                     i2u228_41:
  6374  002A8A  EF59  F015         	goto	i2l2676
  6375  002A8E                     i2u228_40:
  6376  002A8E                     
  6377                           ;main.c: 586:         INTCONbits.T0IF = 0;
  6378  002A8E  94F2               	bcf	242,2,c	;volatile
  6379  002A90                     
  6380                           ;main.c: 587:         TMR0H = 0x3C;
  6381  002A90  0E3C               	movlw	60
  6382  002A92  6ED7               	movwf	215,c	;volatile
  6383                           
  6384                           ;main.c: 588:         TMR0L = 0xAF;
  6385  002A94  0EAF               	movlw	175
  6386  002A96  6ED6               	movwf	214,c	;volatile
  6387  002A98                     
  6388                           ;main.c: 589:         if (run_flag) tick_5 = 1;
  6389  002A98  5046               	movf	_run_flag^0,w,c
  6390  002A9A  1047               	iorwf	(_run_flag+1)^0,w,c
  6391  002A9C  B4D8               	btfsc	status,2,c
  6392  002A9E  EF53  F015         	goto	i2u229_41
  6393  002AA2  EF55  F015         	goto	i2u229_40
  6394  002AA6                     i2u229_41:
  6395  002AA6  EF59  F015         	goto	i2l2676
  6396  002AAA                     i2u229_40:
  6397  002AAA  0E00               	movlw	0
  6398  002AAC  6E3B               	movwf	(_tick_5+1)^0,c
  6399  002AAE  0E01               	movlw	1
  6400  002AB0  6E3A               	movwf	_tick_5^0,c
  6401  002AB2                     i2l2676:
  6402                           
  6403                           ;main.c: 595:     if(INTCONbits.RBIF && INTCONbits.RBIE){
  6404  002AB2  A0F2               	btfss	242,0,c	;volatile
  6405  002AB4  EF5E  F015         	goto	i2u230_41
  6406  002AB8  EF60  F015         	goto	i2u230_40
  6407  002ABC                     i2u230_41:
  6408  002ABC  EF71  F015         	goto	i2l2686
  6409  002AC0                     i2u230_40:
  6410  002AC0  A6F2               	btfss	242,3,c	;volatile
  6411  002AC2  EF65  F015         	goto	i2u231_41
  6412  002AC6  EF67  F015         	goto	i2u231_40
  6413  002ACA                     i2u231_41:
  6414  002ACA  EF71  F015         	goto	i2l2686
  6415  002ACE                     i2u231_40:
  6416  002ACE                     
  6417                           ;main.c: 596:         INTCONbits.RBIF = 0;
  6418  002ACE  90F2               	bcf	242,0,c	;volatile
  6419  002AD0                     
  6420                           ;main.c: 597:         curr_rb4 = PORTBbits.RB4;
  6421  002AD0  0E00               	movlw	0
  6422  002AD2  B881               	btfsc	129,4,c	;volatile
  6423  002AD4  0E01               	movlw	1
  6424  002AD6  6E48               	movwf	_curr_rb4^0,c
  6425  002AD8                     
  6426                           ;main.c: 598:         switch_flag = 1;
  6427  002AD8  0E00               	movlw	0
  6428  002ADA  0100               	movlb	0	; () banked
  6429  002ADC  6F85               	movwf	(_switch_flag+1)& (0+255),b
  6430  002ADE  0E01               	movlw	1
  6431  002AE0  6F84               	movwf	_switch_flag& (0+255),b
  6432  002AE2                     i2l2686:
  6433                           
  6434                           ;main.c: 603:     if (PIR1bits.RC1IF) {
  6435  002AE2  AA9E               	btfss	158,5,c	;volatile
  6436  002AE4  EF76  F015         	goto	i2u232_41
  6437  002AE8  EF78  F015         	goto	i2u232_40
  6438  002AEC                     i2u232_41:
  6439  002AEC  EF91  F015         	goto	i2l2700
  6440  002AF0                     i2u232_40:
  6441  002AF0                     
  6442                           ;main.c: 604:         disable_i();
  6443  002AF0  ECB5  F01A         	call	_disable_i	;wreg free
  6444  002AF4                     
  6445                           ;main.c: 605:         uint8_t c = RCREG1;
  6446  002AF4  CFAE F00E          	movff	4014,HandleInterrupt@c	;volatile
  6447  002AF8                     
  6448                           ;main.c: 606:         buf_push(c, INBUF);
  6449  002AF8  0E00               	movlw	0
  6450  002AFA  6E01               	movwf	i2buf_push@buf^0,c
  6451  002AFC  500E               	movf	HandleInterrupt@c^0,w,c
  6452  002AFE  EC7C  F019         	call	i2_buf_push
  6453  002B02                     
  6454                           ;main.c: 607:         enable_i();
  6455  002B02  ECB2  F01A         	call	_enable_i	;wreg free
  6456  002B06                     
  6457                           ;main.c: 608:         if(c == '#') message_flag = 1;
  6458  002B06  0E23               	movlw	35
  6459  002B08  180E               	xorwf	HandleInterrupt@c^0,w,c
  6460  002B0A  A4D8               	btfss	status,2,c
  6461  002B0C  EF8A  F015         	goto	i2u233_41
  6462  002B10  EF8C  F015         	goto	i2u233_40
  6463  002B14                     i2u233_41:
  6464  002B14  EF91  F015         	goto	i2l2700
  6465  002B18                     i2u233_40:
  6466  002B18  0E00               	movlw	0
  6467  002B1A  0100               	movlb	0	; () banked
  6468  002B1C  6F89               	movwf	(_message_flag+1)& (0+255),b
  6469  002B1E  0E01               	movlw	1
  6470  002B20  6F88               	movwf	_message_flag& (0+255),b
  6471  002B22                     i2l2700:
  6472                           
  6473                           ;main.c: 613:     if(PIR1bits.TX1IF){
  6474  002B22  A89E               	btfss	158,4,c	;volatile
  6475  002B24  EF96  F015         	goto	i2u234_41
  6476  002B28  EF98  F015         	goto	i2u234_40
  6477  002B2C                     i2u234_41:
  6478  002B2C  EFB6  F015         	goto	i2l301
  6479  002B30                     i2u234_40:
  6480  002B30                     
  6481                           ;main.c: 614:         if (buf_isempty(OUTBUF)) {
  6482  002B30  0E01               	movlw	1
  6483  002B32  EC44  F01A         	call	i2_buf_isempty
  6484  002B36  5001               	movf	?i2_buf_isempty^0,w,c
  6485  002B38  1002               	iorwf	(?i2_buf_isempty+1)^0,w,c
  6486  002B3A  B4D8               	btfsc	status,2,c
  6487  002B3C  EFA2  F015         	goto	i2u235_41
  6488  002B40  EFA4  F015         	goto	i2u235_40
  6489  002B44                     i2u235_41:
  6490  002B44  EFAE  F015         	goto	i2l2708
  6491  002B48                     i2u235_40:
  6492  002B48                     
  6493                           ;main.c: 616:             if (TXSTA1bits.TRMT) {
  6494  002B48  A2AC               	btfss	172,1,c	;volatile
  6495  002B4A  EFA9  F015         	goto	i2u236_41
  6496  002B4E  EFAB  F015         	goto	i2u236_40
  6497  002B52                     i2u236_41:
  6498  002B52  EFB6  F015         	goto	i2l301
  6499  002B56                     i2u236_40:
  6500  002B56                     
  6501                           ;main.c: 617:                 TXSTA1bits.TXEN = 0;
  6502  002B56  9AAC               	bcf	172,5,c	;volatile
  6503  002B58  EFB6  F015         	goto	i2l301
  6504  002B5C                     i2l2708:
  6505                           
  6506                           ;main.c: 621:             disable_i();
  6507  002B5C  ECB5  F01A         	call	_disable_i	;wreg free
  6508  002B60                     
  6509                           ;main.c: 622:             TXREG1 = buf_pop(OUTBUF);
  6510  002B60  0E01               	movlw	1
  6511  002B62  EC37  F018         	call	i2_buf_pop
  6512  002B66  6EAD               	movwf	173,c	;volatile
  6513  002B68                     
  6514                           ;main.c: 623:             enable_i();
  6515  002B68  ECB2  F01A         	call	_enable_i	;wreg free
  6516  002B6C                     i2l301:
  6517  002B6C  C00D  FFDA         	movff	??_HandleInterrupt+3,fsr2h
  6518  002B70  C00C  FFD9         	movff	??_HandleInterrupt+2,fsr2l
  6519  002B74  C00B  FFE2         	movff	??_HandleInterrupt+1,fsr1h
  6520  002B78  C00A  FFE1         	movff	??_HandleInterrupt,fsr1l
  6521  002B7C  924D               	bcf	int$flags,1,c	;clear compiler interrupt flag (level 2)
  6522  002B7E  0011               	retfie		f
  6523  002B80                     __end_of_HandleInterrupt:
  6524                           	callstack 0
  6525                           
  6526 ;; *************** function i2_buf_push *****************
  6527 ;; Defined at:
  6528 ;;		line 257 in file "main.c"
  6529 ;; Parameters:    Size  Location     Type
  6530 ;;  v               1    wreg     unsigned char 
  6531 ;;  buf             1    0[COMRAM] enum E4894
  6532 ;; Auto vars:     Size  Location     Type
  6533 ;;  v               1    3[COMRAM] unsigned char 
  6534 ;; Return value:  Size  Location     Type
  6535 ;;                  1    wreg      void 
  6536 ;; Registers used:
  6537 ;;		wreg, fsr2l, fsr2h, status,2, status,0
  6538 ;; Tracked objects:
  6539 ;;		On entry : 0/0
  6540 ;;		On exit  : 0/0
  6541 ;;		Unchanged: 0/0
  6542 ;; Data sizes:     COMRAM   BANK0   BANK1   BANK2   BANK3   BANK4   BANK5   BANK6   BANK7   BANK8   BANK9  BANK10  BANK1
      +1  BANK12  BANK13  BANK14  BANK15
  6543 ;;      Params:         1       0       0       0       0       0       0       0       0       0       0       0       
      +0       0       0       0       0
  6544 ;;      Locals:         1       0       0       0       0       0       0       0       0       0       0       0       
      +0       0       0       0       0
  6545 ;;      Temps:          2       0       0       0       0       0       0       0       0       0       0       0       
      +0       0       0       0       0
  6546 ;;      Totals:         4       0       0       0       0       0       0       0       0       0       0       0       
      +0       0       0       0       0
  6547 ;;Total ram usage:        4 bytes
  6548 ;; Hardware stack levels used:    1
  6549 ;; This function calls:
  6550 ;;		Nothing
  6551 ;; This function is called by:
  6552 ;;		_HandleInterrupt
  6553 ;; This function uses a non-reentrant model
  6554 ;;
  6555                           
  6556                           	psect	text26
  6557  0032F8                     __ptext26:
  6558                           	callstack 0
  6559  0032F8                     i2_buf_push:
  6560                           	callstack 25
  6561                           
  6562                           ;incstack = 0
  6563                           ;i2buf_push@v stored from wreg
  6564  0032F8  6E04               	movwf	i2buf_push@v^0,c
  6565  0032FA                     
  6566                           ;main.c: 259:     if (buf == INBUF) inbuf[head[buf]] = v;
  6567  0032FA  5001               	movf	i2buf_push@buf^0,w,c
  6568  0032FC  A4D8               	btfss	status,2,c
  6569  0032FE  EF83  F019         	goto	i2u225_41
  6570  003302  EF85  F019         	goto	i2u225_40
  6571  003306                     i2u225_41:
  6572  003306  EF98  F019         	goto	i2l2642
  6573  00330A                     i2u225_40:
  6574  00330A  0E44               	movlw	low _head
  6575  00330C  2401               	addwf	i2buf_push@buf^0,w,c
  6576  00330E  6ED9               	movwf	fsr2l,c
  6577  003310  6ADA               	clrf	fsr2h,c
  6578  003312  0E00               	movlw	high _head
  6579  003314  22DA               	addwfc	fsr2h,f,c
  6580  003316  50DF               	movf	indf2,w,c
  6581  003318  6E02               	movwf	??i2_buf_push^0,c
  6582  00331A  6A03               	clrf	(??i2_buf_push+1)^0,c
  6583  00331C  0E00               	movlw	low _inbuf
  6584  00331E  2402               	addwf	??i2_buf_push^0,w,c
  6585  003320  6ED9               	movwf	fsr2l,c
  6586  003322  0E01               	movlw	high _inbuf
  6587  003324  2003               	addwfc	(??i2_buf_push+1)^0,w,c
  6588  003326  6EDA               	movwf	fsr2h,c
  6589  003328  C004  FFDF         	movff	i2buf_push@v,indf2
  6590  00332C  EFA9  F019         	goto	i2l178
  6591  003330                     i2l2642:
  6592  003330  0E44               	movlw	low _head
  6593  003332  2401               	addwf	i2buf_push@buf^0,w,c
  6594  003334  6ED9               	movwf	fsr2l,c
  6595  003336  6ADA               	clrf	fsr2h,c
  6596  003338  0E00               	movlw	high _head
  6597  00333A  22DA               	addwfc	fsr2h,f,c
  6598  00333C  50DF               	movf	indf2,w,c
  6599  00333E  6E02               	movwf	??i2_buf_push^0,c
  6600  003340  6A03               	clrf	(??i2_buf_push+1)^0,c
  6601  003342  0E00               	movlw	low _outbuf
  6602  003344  2402               	addwf	??i2_buf_push^0,w,c
  6603  003346  6ED9               	movwf	fsr2l,c
  6604  003348  0E02               	movlw	high _outbuf
  6605  00334A  2003               	addwfc	(??i2_buf_push+1)^0,w,c
  6606  00334C  6EDA               	movwf	fsr2h,c
  6607  00334E  C004  FFDF         	movff	i2buf_push@v,indf2
  6608  003352                     i2l178:
  6609                           
  6610                           ;main.c: 261:     head[buf]++;
  6611  003352  0E44               	movlw	low _head
  6612  003354  2401               	addwf	i2buf_push@buf^0,w,c
  6613  003356  6ED9               	movwf	fsr2l,c
  6614  003358  6ADA               	clrf	fsr2h,c
  6615  00335A  0E00               	movlw	high _head
  6616  00335C  22DA               	addwfc	fsr2h,f,c
  6617  00335E  2ADF               	incf	indf2,f,c
  6618                           
  6619                           ;main.c: 263:     if (head[buf] == 256) head[buf] = 0;
  6620  003360  0E44               	movlw	low _head
  6621  003362  2401               	addwf	i2buf_push@buf^0,w,c
  6622  003364  6ED9               	movwf	fsr2l,c
  6623  003366  6ADA               	clrf	fsr2h,c
  6624  003368  0E00               	movlw	high _head
  6625  00336A  22DA               	addwfc	fsr2h,f,c
  6626  00336C  0012               	return		;funcret
  6627  00336E                     __end_ofi2_buf_push:
  6628                           	callstack 0
  6629                           
  6630 ;; *************** function i2_buf_pop *****************
  6631 ;; Defined at:
  6632 ;;		line 268 in file "main.c"
  6633 ;; Parameters:    Size  Location     Type
  6634 ;;  buf             1    wreg     enum E4894
  6635 ;; Auto vars:     Size  Location     Type
  6636 ;;  buf             1    8[COMRAM] enum E4894
  6637 ;;  v               1    7[COMRAM] unsigned char 
  6638 ;; Return value:  Size  Location     Type
  6639 ;;                  1    wreg      unsigned char 
  6640 ;; Registers used:
  6641 ;;		wreg, fsr1l, fsr1h, fsr2l, fsr2h, status,2, status,0, cstack
  6642 ;; Tracked objects:
  6643 ;;		On entry : 0/0
  6644 ;;		On exit  : 0/0
  6645 ;;		Unchanged: 0/0
  6646 ;; Data sizes:     COMRAM   BANK0   BANK1   BANK2   BANK3   BANK4   BANK5   BANK6   BANK7   BANK8   BANK9  BANK10  BANK1
      +1  BANK12  BANK13  BANK14  BANK15
  6647 ;;      Params:         0       0       0       0       0       0       0       0       0       0       0       0       
      +0       0       0       0       0
  6648 ;;      Locals:         2       0       0       0       0       0       0       0       0       0       0       0       
      +0       0       0       0       0
  6649 ;;      Temps:          2       0       0       0       0       0       0       0       0       0       0       0       
      +0       0       0       0       0
  6650 ;;      Totals:         4       0       0       0       0       0       0       0       0       0       0       0       
      +0       0       0       0       0
  6651 ;;Total ram usage:        4 bytes
  6652 ;; Hardware stack levels used:    1
  6653 ;; Hardware stack levels required when called:    1
  6654 ;; This function calls:
  6655 ;;		i2_buf_isempty
  6656 ;; This function is called by:
  6657 ;;		_HandleInterrupt
  6658 ;; This function uses a non-reentrant model
  6659 ;;
  6660                           
  6661                           	psect	text27
  6662  00306E                     __ptext27:
  6663                           	callstack 0
  6664  00306E                     i2_buf_pop:
  6665                           	callstack 24
  6666                           
  6667                           ;incstack = 0
  6668                           ;i2buf_pop@buf stored from wreg
  6669  00306E  6E09               	movwf	i2buf_pop@buf^0,c
  6670  003070                     
  6671                           ;main.c: 269:     uint8_t v;;main.c: 270:     if (buf_isempty(buf)) {
  6672  003070  5009               	movf	i2buf_pop@buf^0,w,c
  6673  003072  EC44  F01A         	call	i2_buf_isempty
  6674  003076  5001               	movf	?i2_buf_isempty^0,w,c
  6675  003078  1002               	iorwf	(?i2_buf_isempty+1)^0,w,c
  6676  00307A  B4D8               	btfsc	status,2,c
  6677  00307C  EF42  F018         	goto	i2u226_41
  6678  003080  EF44  F018         	goto	i2u226_40
  6679  003084                     i2u226_41:
  6680  003084  EF47  F018         	goto	i2l2654
  6681  003088                     i2u226_40:
  6682  003088                     
  6683                           ;main.c: 271:         return 0;
  6684  003088  0E00               	movlw	0
  6685  00308A  EF81  F018         	goto	i2l184
  6686  00308E                     i2l2654:
  6687                           
  6688                           ;main.c: 274:         if (buf == INBUF) v = inbuf[tail[buf]];
  6689  00308E  5009               	movf	i2buf_pop@buf^0,w,c
  6690  003090  A4D8               	btfss	status,2,c
  6691  003092  EF4D  F018         	goto	i2u227_41
  6692  003096  EF4F  F018         	goto	i2u227_40
  6693  00309A                     i2u227_41:
  6694  00309A  EF62  F018         	goto	i2l2658
  6695  00309E                     i2u227_40:
  6696  00309E  0E42               	movlw	low _tail
  6697  0030A0  2409               	addwf	i2buf_pop@buf^0,w,c
  6698  0030A2  6ED9               	movwf	fsr2l,c
  6699  0030A4  6ADA               	clrf	fsr2h,c
  6700  0030A6  0E00               	movlw	high _tail
  6701  0030A8  22DA               	addwfc	fsr2h,f,c
  6702  0030AA  50DF               	movf	indf2,w,c
  6703  0030AC  6E06               	movwf	??i2_buf_pop^0,c
  6704  0030AE  6A07               	clrf	(??i2_buf_pop+1)^0,c
  6705  0030B0  0E00               	movlw	low _inbuf
  6706  0030B2  2406               	addwf	??i2_buf_pop^0,w,c
  6707  0030B4  6ED9               	movwf	fsr2l,c
  6708  0030B6  0E01               	movlw	high _inbuf
  6709  0030B8  2007               	addwfc	(??i2_buf_pop+1)^0,w,c
  6710  0030BA  6EDA               	movwf	fsr2h,c
  6711  0030BC  50DF               	movf	indf2,w,c
  6712  0030BE  6E08               	movwf	i2buf_pop@v^0,c
  6713  0030C0  EF73  F018         	goto	i2l187
  6714  0030C4                     i2l2658:
  6715  0030C4  0E42               	movlw	low _tail
  6716  0030C6  2409               	addwf	i2buf_pop@buf^0,w,c
  6717  0030C8  6ED9               	movwf	fsr2l,c
  6718  0030CA  6ADA               	clrf	fsr2h,c
  6719  0030CC  0E00               	movlw	high _tail
  6720  0030CE  22DA               	addwfc	fsr2h,f,c
  6721  0030D0  50DF               	movf	indf2,w,c
  6722  0030D2  6E06               	movwf	??i2_buf_pop^0,c
  6723  0030D4  6A07               	clrf	(??i2_buf_pop+1)^0,c
  6724  0030D6  0E00               	movlw	low _outbuf
  6725  0030D8  2406               	addwf	??i2_buf_pop^0,w,c
  6726  0030DA  6ED9               	movwf	fsr2l,c
  6727  0030DC  0E02               	movlw	high _outbuf
  6728  0030DE  2007               	addwfc	(??i2_buf_pop+1)^0,w,c
  6729  0030E0  6EDA               	movwf	fsr2h,c
  6730  0030E2  50DF               	movf	indf2,w,c
  6731  0030E4  6E08               	movwf	i2buf_pop@v^0,c
  6732  0030E6                     i2l187:
  6733                           
  6734                           ;main.c: 276:         tail[buf]++;
  6735  0030E6  0E42               	movlw	low _tail
  6736  0030E8  2409               	addwf	i2buf_pop@buf^0,w,c
  6737  0030EA  6ED9               	movwf	fsr2l,c
  6738  0030EC  6ADA               	clrf	fsr2h,c
  6739  0030EE  0E00               	movlw	high _tail
  6740  0030F0  22DA               	addwfc	fsr2h,f,c
  6741  0030F2  2ADF               	incf	indf2,f,c
  6742                           
  6743                           ;main.c: 278:         if (tail[buf] == 256) tail[buf] = 0;
  6744  0030F4  0E42               	movlw	low _tail
  6745  0030F6  2409               	addwf	i2buf_pop@buf^0,w,c
  6746  0030F8  6ED9               	movwf	fsr2l,c
  6747  0030FA  6ADA               	clrf	fsr2h,c
  6748  0030FC  0E00               	movlw	high _tail
  6749  0030FE  22DA               	addwfc	fsr2h,f,c
  6750  003100                     
  6751                           ;main.c: 279:         return v;
  6752  003100  5008               	movf	i2buf_pop@v^0,w,c
  6753  003102                     i2l184:
  6754  003102  0012               	return		;funcret
  6755  003104                     __end_ofi2_buf_pop:
  6756                           	callstack 0
  6757                           
  6758 ;; *************** function i2_buf_isempty *****************
  6759 ;; Defined at:
  6760 ;;		line 249 in file "main.c"
  6761 ;; Parameters:    Size  Location     Type
  6762 ;;  typ             1    wreg     enum E4894
  6763 ;; Auto vars:     Size  Location     Type
  6764 ;;  typ             1    4[COMRAM] enum E4894
  6765 ;; Return value:  Size  Location     Type
  6766 ;;                  2    0[COMRAM] int 
  6767 ;; Registers used:
  6768 ;;		wreg, fsr1l, fsr1h, fsr2l, fsr2h, status,2, status,0
  6769 ;; Tracked objects:
  6770 ;;		On entry : 0/0
  6771 ;;		On exit  : 0/0
  6772 ;;		Unchanged: 0/0
  6773 ;; Data sizes:     COMRAM   BANK0   BANK1   BANK2   BANK3   BANK4   BANK5   BANK6   BANK7   BANK8   BANK9  BANK10  BANK1
      +1  BANK12  BANK13  BANK14  BANK15
  6774 ;;      Params:         2       0       0       0       0       0       0       0       0       0       0       0       
      +0       0       0       0       0
  6775 ;;      Locals:         1       0       0       0       0       0       0       0       0       0       0       0       
      +0       0       0       0       0
  6776 ;;      Temps:          2       0       0       0       0       0       0       0       0       0       0       0       
      +0       0       0       0       0
  6777 ;;      Totals:         5       0       0       0       0       0       0       0       0       0       0       0       
      +0       0       0       0       0
  6778 ;;Total ram usage:        5 bytes
  6779 ;; Hardware stack levels used:    1
  6780 ;; This function calls:
  6781 ;;		Nothing
  6782 ;; This function is called by:
  6783 ;;		_HandleInterrupt
  6784 ;;		i2_buf_pop
  6785 ;; This function uses a non-reentrant model
  6786 ;;
  6787                           
  6788                           	psect	text28
  6789  003488                     __ptext28:
  6790                           	callstack 0
  6791  003488                     i2_buf_isempty:
  6792                           	callstack 24
  6793                           
  6794                           ;incstack = 0
  6795                           ;i2buf_isempty@typ stored from wreg
  6796  003488  6E05               	movwf	i2buf_isempty@typ^0,c
  6797  00348A                     
  6798                           ;main.c: 250:     if (head[typ] == tail[typ]) return 1;
  6799  00348A  0E42               	movlw	low _tail
  6800  00348C  2405               	addwf	i2buf_isempty@typ^0,w,c
  6801  00348E  6ED9               	movwf	fsr2l,c
  6802  003490  6ADA               	clrf	fsr2h,c
  6803  003492  0E00               	movlw	high _tail
  6804  003494  22DA               	addwfc	fsr2h,f,c
  6805  003496  0E44               	movlw	low _head
  6806  003498  2405               	addwf	i2buf_isempty@typ^0,w,c
  6807  00349A  6EE1               	movwf	fsr1l,c
  6808  00349C  6AE2               	clrf	fsr1h,c
  6809  00349E  0E00               	movlw	high _head
  6810  0034A0  22E2               	addwfc	fsr1h,f,c
  6811  0034A2  50DE               	movf	postinc2,w,c
  6812  0034A4  18E6               	xorwf	postinc1,w,c
  6813  0034A6  A4D8               	btfss	status,2,c
  6814  0034A8  EF58  F01A         	goto	i2u207_41
  6815  0034AC  EF5A  F01A         	goto	i2u207_40
  6816  0034B0                     i2u207_41:
  6817  0034B0  EF60  F01A         	goto	i2l2506
  6818  0034B4                     i2u207_40:
  6819  0034B4  0E00               	movlw	0
  6820  0034B6  6E02               	movwf	(?i2_buf_isempty+1)^0,c
  6821  0034B8  0E01               	movlw	1
  6822  0034BA  6E01               	movwf	?i2_buf_isempty^0,c
  6823  0034BC  EF64  F01A         	goto	i2l173
  6824  0034C0                     i2l2506:
  6825  0034C0  0E00               	movlw	0
  6826  0034C2  6E02               	movwf	(?i2_buf_isempty+1)^0,c
  6827  0034C4  0E00               	movlw	0
  6828  0034C6  6E01               	movwf	?i2_buf_isempty^0,c
  6829  0034C8                     i2l173:
  6830  0034C8  0012               	return		;funcret
  6831  0034CA                     __end_ofi2_buf_isempty:
  6832                           	callstack 0
  6833                           
  6834 ;; *************** function _enable_i *****************
  6835 ;; Defined at:
  6836 ;;		line 114 in file "main.c"
  6837 ;; Parameters:    Size  Location     Type
  6838 ;;		None
  6839 ;; Auto vars:     Size  Location     Type
  6840 ;;		None
  6841 ;; Return value:  Size  Location     Type
  6842 ;;                  1    wreg      void 
  6843 ;; Registers used:
  6844 ;;		None
  6845 ;; Tracked objects:
  6846 ;;		On entry : 0/0
  6847 ;;		On exit  : 0/0
  6848 ;;		Unchanged: 0/0
  6849 ;; Data sizes:     COMRAM   BANK0   BANK1   BANK2   BANK3   BANK4   BANK5   BANK6   BANK7   BANK8   BANK9  BANK10  BANK1
      +1  BANK12  BANK13  BANK14  BANK15
  6850 ;;      Params:         0       0       0       0       0       0       0       0       0       0       0       0       
      +0       0       0       0       0
  6851 ;;      Locals:         0       0       0       0       0       0       0       0       0       0       0       0       
      +0       0       0       0       0
  6852 ;;      Temps:          0       0       0       0       0       0       0       0       0       0       0       0       
      +0       0       0       0       0
  6853 ;;      Totals:         0       0       0       0       0       0       0       0       0       0       0       0       
      +0       0       0       0       0
  6854 ;;Total ram usage:        0 bytes
  6855 ;; Hardware stack levels used:    1
  6856 ;; This function calls:
  6857 ;;		Nothing
  6858 ;; This function is called by:
  6859 ;;		_HandleInterrupt
  6860 ;; This function uses a non-reentrant model
  6861 ;;
  6862                           
  6863                           	psect	text29
  6864  003564                     __ptext29:
  6865                           	callstack 0
  6866  003564                     _enable_i:
  6867                           	callstack 25
  6868  003564  8EF2               	bsf	242,7,c	;volatile
  6869  003566  8CF2               	bsf	242,6,c	;volatile
  6870  003568  0012               	return		;funcret
  6871  00356A                     __end_of_enable_i:
  6872                           	callstack 0
  6873                           
  6874 ;; *************** function _disable_i *****************
  6875 ;; Defined at:
  6876 ;;		line 112 in file "main.c"
  6877 ;; Parameters:    Size  Location     Type
  6878 ;;		None
  6879 ;; Auto vars:     Size  Location     Type
  6880 ;;		None
  6881 ;; Return value:  Size  Location     Type
  6882 ;;                  1    wreg      void 
  6883 ;; Registers used:
  6884 ;;		None
  6885 ;; Tracked objects:
  6886 ;;		On entry : 0/0
  6887 ;;		On exit  : 0/0
  6888 ;;		Unchanged: 0/0
  6889 ;; Data sizes:     COMRAM   BANK0   BANK1   BANK2   BANK3   BANK4   BANK5   BANK6   BANK7   BANK8   BANK9  BANK10  BANK1
      +1  BANK12  BANK13  BANK14  BANK15
  6890 ;;      Params:         0       0       0       0       0       0       0       0       0       0       0       0       
      +0       0       0       0       0
  6891 ;;      Locals:         0       0       0       0       0       0       0       0       0       0       0       0       
      +0       0       0       0       0
  6892 ;;      Temps:          0       0       0       0       0       0       0       0       0       0       0       0       
      +0       0       0       0       0
  6893 ;;      Totals:         0       0       0       0       0       0       0       0       0       0       0       0       
      +0       0       0       0       0
  6894 ;;Total ram usage:        0 bytes
  6895 ;; Hardware stack levels used:    1
  6896 ;; This function calls:
  6897 ;;		Nothing
  6898 ;; This function is called by:
  6899 ;;		_HandleInterrupt
  6900 ;; This function uses a non-reentrant model
  6901 ;;
  6902                           
  6903                           	psect	text30
  6904  00356A                     __ptext30:
  6905                           	callstack 0
  6906  00356A                     _disable_i:
  6907                           	callstack 25
  6908  00356A  9EF2               	bcf	242,7,c	;volatile
  6909  00356C  9CF2               	bcf	242,6,c	;volatile
  6910  00356E  0012               	return		;funcret
  6911  003570                     __end_of_disable_i:
  6912                           	callstack 0
  6913                           
  6914                           	psect	rparam
  6915  0000                     
  6916                           	psect	temp
  6917  00004D                     btemp:
  6918                           	callstack 0
  6919  00004D                     	ds	1
  6920  0000                     int$flags	set	btemp
  6921  0000                     wtemp8	set	btemp+1
  6922  0000                     ttemp5	set	btemp+1
  6923  0000                     ttemp6	set	btemp+4
  6924  0000                     ttemp7	set	btemp+8
  6925                           
  6926                           	psect	idloc
  6927                           
  6928                           ;Config register IDLOC0 @ 0x200000
  6929                           ;	unspecified, using default values
  6930  200000                     	org	2097152
  6931  200000  FF                 	db	255
  6932                           
  6933                           ;Config register IDLOC1 @ 0x200001
  6934                           ;	unspecified, using default values
  6935  200001                     	org	2097153
  6936  200001  FF                 	db	255
  6937                           
  6938                           ;Config register IDLOC2 @ 0x200002
  6939                           ;	unspecified, using default values
  6940  200002                     	org	2097154
  6941  200002  FF                 	db	255
  6942                           
  6943                           ;Config register IDLOC3 @ 0x200003
  6944                           ;	unspecified, using default values
  6945  200003                     	org	2097155
  6946  200003  FF                 	db	255
  6947                           
  6948                           ;Config register IDLOC4 @ 0x200004
  6949                           ;	unspecified, using default values
  6950  200004                     	org	2097156
  6951  200004  FF                 	db	255
  6952                           
  6953                           ;Config register IDLOC5 @ 0x200005
  6954                           ;	unspecified, using default values
  6955  200005                     	org	2097157
  6956  200005  FF                 	db	255
  6957                           
  6958                           ;Config register IDLOC6 @ 0x200006
  6959                           ;	unspecified, using default values
  6960  200006                     	org	2097158
  6961  200006  FF                 	db	255
  6962                           
  6963                           ;Config register IDLOC7 @ 0x200007
  6964                           ;	unspecified, using default values
  6965  200007                     	org	2097159
  6966  200007  FF                 	db	255
  6967                           
  6968                           	psect	config
  6969                           
  6970                           ; Padding undefined space
  6971  300000                     	org	3145728
  6972  300000  FF                 	db	255
  6973                           
  6974                           ;Config register CONFIG1H @ 0x300001
  6975                           ;	Oscillator Selection bits
  6976                           ;	OSC = HSPLL, HS oscillator, PLL enabled (Clock Frequency = 4 x FOSC1)
  6977                           ;	Fail-Safe Clock Monitor Enable bit
  6978                           ;	FCMEN = OFF, Fail-Safe Clock Monitor disabled
  6979                           ;	Internal/External Oscillator Switchover bit
  6980                           ;	IESO = OFF, Two-Speed Start-up disabled
  6981  300001                     	org	3145729
  6982  300001  06                 	db	6
  6983                           
  6984                           ;Config register CONFIG2L @ 0x300002
  6985                           ;	Power-up Timer Enable bit
  6986                           ;	PWRT = OFF, PWRT disabled
  6987                           ;	Brown-out Reset Enable bits
  6988                           ;	BOREN = OFF, Brown-out Reset disabled in hardware and software
  6989                           ;	Brown-out Voltage bits
  6990                           ;	BORV = 3, Minimum setting
  6991  300002                     	org	3145730
  6992  300002  19                 	db	25
  6993                           
  6994                           ;Config register CONFIG2H @ 0x300003
  6995                           ;	Watchdog Timer
  6996                           ;	WDT = OFF, WDT disabled (control is placed on the SWDTEN bit)
  6997                           ;	Watchdog Timer Postscale Select bits
  6998                           ;	WDTPS = 32768, 1:32768
  6999  300003                     	org	3145731
  7000  300003  1E                 	db	30
  7001                           
  7002                           ;Config register CONFIG3L @ 0x300004
  7003                           ;	Processor Data Memory Mode Select bits
  7004                           ;	MODE = MC, Microcontroller mode
  7005                           ;	Address Bus Width Select bits
  7006                           ;	ADDRBW = ADDR20BIT, 20-bit Address Bus
  7007                           ;	Data Bus Width Select bit
  7008                           ;	DATABW = DATA16BIT, 16-bit External Bus mode
  7009                           ;	External Bus Data Wait Enable bit
  7010                           ;	WAIT = OFF, Wait selections are unavailable for table reads and table writes
  7011  300004                     	org	3145732
  7012  300004  F3                 	db	243
  7013                           
  7014                           ;Config register CONFIG3H @ 0x300005
  7015                           ;	CCP2 MUX bit
  7016                           ;	CCP2MX = PORTC, ECCP2 input/output is multiplexed with RC1
  7017                           ;	ECCP MUX bit
  7018                           ;	ECCPMX = PORTE, ECCP1/3 (P1B/P1C/P3B/P3C) are multiplexed onto RE6, RE5, RE4 and RE3 r
      +                          espectively
  7019                           ;	Low-Power Timer1 Oscillator Enable bit
  7020                           ;	LPT1OSC = OFF, Timer1 configured for higher power operation
  7021                           ;	MCLR Pin Enable bit
  7022                           ;	MCLRE = ON, MCLR pin enabled; RG5 input pin disabled
  7023  300005                     	org	3145733
  7024  300005  83                 	db	131
  7025                           
  7026                           ;Config register CONFIG4L @ 0x300006
  7027                           ;	Stack Full/Underflow Reset Enable bit
  7028                           ;	STVREN = ON, Stack full/underflow will cause Reset
  7029                           ;	Single-Supply ICSP Enable bit
  7030                           ;	LVP = OFF, Single-Supply ICSP disabled
  7031                           ;	Boot Block Size Select bits
  7032                           ;	BBSIZ = BB2K, 1K word (2 Kbytes) Boot Block size
  7033                           ;	Extended Instruction Set Enable bit
  7034                           ;	XINST = OFF, Instruction set extension and Indexed Addressing mode disabled (Legacy mo
      +                          de)
  7035                           ;	Background Debugger Enable bit
  7036                           ;	DEBUG = ON, Background debugger enabled, RB6 and RB7 are dedicated to In-Circuit Debug
  7037  300006                     	org	3145734
  7038  300006  01                 	db	1
  7039                           
  7040                           ; Padding undefined space
  7041  300007                     	org	3145735
  7042  300007  FF                 	db	255
  7043                           
  7044                           ;Config register CONFIG5L @ 0x300008
  7045                           ;	Code Protection bit Block 0
  7046                           ;	CP0 = OFF, Block 0 (000800, 001000 or 002000-003FFFh) not code-protected
  7047                           ;	Code Protection bit Block 1
  7048                           ;	CP1 = OFF, Block 1 (004000-007FFFh) not code-protected
  7049                           ;	Code Protection bit Block 2
  7050                           ;	CP2 = OFF, Block 2 (008000-00BFFFh) not code-protected
  7051                           ;	Code Protection bit Block 3
  7052                           ;	CP3 = OFF, Block 3 (00C000-00FFFFh) not code-protected
  7053                           ;	Code Protection bit Block 4
  7054                           ;	CP4 = OFF, Block 4 (010000-013FFFh) not code-protected
  7055                           ;	Code Protection bit Block 5
  7056                           ;	CP5 = OFF, Block 5 (014000-017FFFh) not code-protected
  7057                           ;	Code Protection bit Block 6
  7058                           ;	CP6 = OFF, Block 6 (01BFFF-018000h) not code-protected
  7059                           ;	Code Protection bit Block 7
  7060                           ;	CP7 = OFF, Block 7 (01C000-01FFFFh) not code-protected
  7061  300008                     	org	3145736
  7062  300008  FF                 	db	255
  7063                           
  7064                           ;Config register CONFIG5H @ 0x300009
  7065                           ;	Boot Block Code Protection bit
  7066                           ;	CPB = OFF, Boot Block (000000-0007FFh) not code-protected
  7067                           ;	Data EEPROM Code Protection bit
  7068                           ;	CPD = OFF, Data EEPROM not code-protected
  7069  300009                     	org	3145737
  7070  300009  C0                 	db	192
  7071                           
  7072                           ;Config register CONFIG6L @ 0x30000A
  7073                           ;	Write Protection bit Block 0
  7074                           ;	WRT0 = OFF, Block 0 (000800, 001000 or 002000-003FFFh) not write-protected
  7075                           ;	Write Protection bit Block 1
  7076                           ;	WRT1 = OFF, Block 1 (004000-007FFFh) not write-protected
  7077                           ;	Write Protection bit Block 2
  7078                           ;	WRT2 = OFF, Block 2 (008000-00BFFFh) not write-protected
  7079                           ;	Write Protection bit Block 3
  7080                           ;	WRT3 = OFF, Block 3 (00C000-00FFFFh) not write-protected
  7081                           ;	Write Protection bit Block 4
  7082                           ;	WRT4 = OFF, Block 4 (010000-013FFFh) not write-protected
  7083                           ;	Write Protection bit Block 5
  7084                           ;	WRT5 = OFF, Block 5 (014000-017FFFh) not write-protected
  7085                           ;	Write Protection bit Block 6
  7086                           ;	WRT6 = OFF, Block 6 (01BFFF-018000h) not write-protected
  7087                           ;	Write Protection bit Block 7
  7088                           ;	WRT7 = OFF, Block 7 (01C000-01FFFFh) not write-protected
  7089  30000A                     	org	3145738
  7090  30000A  FF                 	db	255
  7091                           
  7092                           ;Config register CONFIG6H @ 0x30000B
  7093                           ;	Configuration Register Write Protection bit
  7094                           ;	WRTC = OFF, Configuration registers (300000-3000FFh) not write-protected
  7095                           ;	Boot Block Write Protection bit
  7096                           ;	WRTB = OFF, Boot Block (000000-007FFF, 000FFF or 001FFFh) not write-protected
  7097                           ;	Data EEPROM Write Protection bit
  7098                           ;	WRTD = OFF, Data EEPROM not write-protected
  7099  30000B                     	org	3145739
  7100  30000B  E0                 	db	224
  7101                           
  7102                           ;Config register CONFIG7L @ 0x30000C
  7103                           ;	Table Read Protection bit Block 0
  7104                           ;	EBTR0 = OFF, Block 0 (000800, 001000 or 002000-003FFFh) not protected from table reads
      +                           executed in other blocks
  7105                           ;	Table Read Protection bit Block 1
  7106                           ;	EBTR1 = OFF, Block 1 (004000-007FFFh) not protected from table reads executed in other
      +                           blocks
  7107                           ;	Table Read Protection bit Block 2
  7108                           ;	EBTR2 = OFF, Block 2 (008000-00BFFFh) not protected from table reads executed in other
      +                           blocks
  7109                           ;	Table Read Protection bit Block 3
  7110                           ;	EBTR3 = OFF, Block 3 (00C000-00FFFFh) not protected from table reads executed in other
      +                           blocks
  7111                           ;	Table Read Protection bit Block 4
  7112                           ;	EBTR4 = OFF, Block 4 (010000-013FFFh) not protected from table reads executed in other
      +                           blocks
  7113                           ;	Table Read Protection bit Block 5
  7114                           ;	EBTR5 = OFF, Block 5 (014000-017FFFh) not protected from table reads executed in other
      +                           blocks
  7115                           ;	Table Read Protection bit Block 6
  7116                           ;	EBTR6 = OFF, Block 6 (018000-01BFFFh) not protected from table reads executed in other
      +                           blocks
  7117                           ;	Table Read Protection bit Block 7
  7118                           ;	EBTR7 = OFF, Block 7 (01C000-01FFFFh) not protected from table reads executed in other
      +                           blocks
  7119  30000C                     	org	3145740
  7120  30000C  FF                 	db	255
  7121                           
  7122                           ;Config register CONFIG7H @ 0x30000D
  7123                           ;	Boot Block Table Read Protection bit
  7124                           ;	EBTRB = OFF, Boot Block (000000-007FFF, 000FFF or 001FFFh) not protected from table re
      +                          ads executed in other blocks
  7125  30000D                     	org	3145741
  7126  30000D  40                 	db	64
  7127                           tosu	equ	0xFFF
  7128                           tosh	equ	0xFFE
  7129                           tosl	equ	0xFFD
  7130                           stkptr	equ	0xFFC
  7131                           pclatu	equ	0xFFB
  7132                           pclath	equ	0xFFA
  7133                           pcl	equ	0xFF9
  7134                           tblptru	equ	0xFF8
  7135                           tblptrh	equ	0xFF7
  7136                           tblptrl	equ	0xFF6
  7137                           tablat	equ	0xFF5
  7138                           prodh	equ	0xFF4
  7139                           prodl	equ	0xFF3
  7140                           indf0	equ	0xFEF
  7141                           postinc0	equ	0xFEE
  7142                           postdec0	equ	0xFED
  7143                           preinc0	equ	0xFEC
  7144                           plusw0	equ	0xFEB
  7145                           fsr0h	equ	0xFEA
  7146                           fsr0l	equ	0xFE9
  7147                           wreg	equ	0xFE8
  7148                           indf1	equ	0xFE7
  7149                           postinc1	equ	0xFE6
  7150                           postdec1	equ	0xFE5
  7151                           preinc1	equ	0xFE4
  7152                           plusw1	equ	0xFE3
  7153                           fsr1h	equ	0xFE2
  7154                           fsr1l	equ	0xFE1
  7155                           bsr	equ	0xFE0
  7156                           indf2	equ	0xFDF
  7157                           postinc2	equ	0xFDE
  7158                           postdec2	equ	0xFDD
  7159                           preinc2	equ	0xFDC
  7160                           plusw2	equ	0xFDB
  7161                           fsr2h	equ	0xFDA
  7162                           fsr2l	equ	0xFD9
  7163                           status	equ	0xFD8

Data Sizes:
    Strings     19
    Constant    10
    Data        2
    BSS         939
    Persistent  0
    Stack       0

Auto Spaces:
    Space          Size  Autos    Used
    COMRAM           94     45      76
    BANK0           160     17      81
    BANK1           256      0     256
    BANK2           256      0     256
    BANK3           256      0       0
    BANK4           256      0       0
    BANK5           256      0       0
    BANK6           256      0       0
    BANK7           256      0       0
    BANK8           256      0       0
    BANK9           256      0       0
    BANK10          256      0       0
    BANK11          256      0       0
    BANK12          256      0       0
    BANK13          256      0       0
    BANK14          256      0       0
    BANK15           96      0       0

Pointer List with Targets:

    is_same@b	PTR const unsigned char  size(2) Largest target is 4
		 -> STR_10(CODE[4]), STR_8(CODE[4]), STR_6(CODE[4]), STR_4(CODE[4]), 
		 -> STR_2(CODE[3]), 

    is_same@a	PTR const unsigned char  size(2) Largest target is 20
		 -> buffer(BANK0[20]), 

    find_parked@slot	PTR int  size(2) Largest target is 2
		 -> eval_message@tmp_slot_686(BANK0[2]), 

    find_parked@level	PTR unsigned char  size(2) Largest target is 1
		 -> eval_message@tmp_lvl_687(BANK0[1]), 

    find_subscribed@slot	PTR int  size(2) Largest target is 2
		 -> eval_message@tmp_slot(BANK0[2]), 

    find_subscribed@level	PTR unsigned char  size(2) Largest target is 1
		 -> eval_message@tmp_lvl(BANK0[1]), 

    find_park_available_slot@slot	PTR int  size(2) Largest target is 2
		 -> eval_message@tmp_slot(BANK0[2]), 

    find_park_available_slot@level	PTR unsigned char  size(2) Largest target is 1
		 -> eval_message@tmp_lvl(BANK0[1]), 


Critical Paths under _main in COMRAM

    _main->_receive_message
    _update_display->___awmod
    ___lwmod->___lwdiv
    _send_message->_buf_push
    _receive_message->_eval_message
    _eval_message->_find_park_available_slot
    _eval_message->_find_parked
    _eval_message->_find_subscribed
    _find_subscribed->___wmul
    _find_parked->___wmul
    _find_park_available_slot->___wmul
    _buf_push->___awmod
    ___awmod->___awdiv
    _buf_pop->_buf_isempty
    _init_others->___wmul

Critical Paths under _HandleInterrupt in COMRAM

    _HandleInterrupt->i2_buf_pop
    i2_buf_pop->i2_buf_isempty

Critical Paths under _main in BANK0

    _receive_message->_eval_message

Critical Paths under _HandleInterrupt in BANK0

    None.

Critical Paths under _main in BANK1

    None.

Critical Paths under _HandleInterrupt in BANK1

    None.

Critical Paths under _main in BANK2

    None.

Critical Paths under _HandleInterrupt in BANK2

    None.

Critical Paths under _main in BANK3

    None.

Critical Paths under _HandleInterrupt in BANK3

    None.

Critical Paths under _main in BANK4

    None.

Critical Paths under _HandleInterrupt in BANK4

    None.

Critical Paths under _main in BANK5

    None.

Critical Paths under _HandleInterrupt in BANK5

    None.

Critical Paths under _main in BANK6

    None.

Critical Paths under _HandleInterrupt in BANK6

    None.

Critical Paths under _main in BANK7

    None.

Critical Paths under _HandleInterrupt in BANK7

    None.

Critical Paths under _main in BANK8

    None.

Critical Paths under _HandleInterrupt in BANK8

    None.

Critical Paths under _main in BANK9

    None.

Critical Paths under _HandleInterrupt in BANK9

    None.

Critical Paths under _main in BANK10

    None.

Critical Paths under _HandleInterrupt in BANK10

    None.

Critical Paths under _main in BANK11

    None.

Critical Paths under _HandleInterrupt in BANK11

    None.

Critical Paths under _main in BANK12

    None.

Critical Paths under _HandleInterrupt in BANK12

    None.

Critical Paths under _main in BANK13

    None.

Critical Paths under _HandleInterrupt in BANK13

    None.

Critical Paths under _main in BANK14

    None.

Critical Paths under _HandleInterrupt in BANK14

    None.

Critical Paths under _main in BANK15

    None.

Critical Paths under _HandleInterrupt in BANK15

    None.

Call Graph Tables:

 ---------------------------------------------------------------------------------
 (Depth) Function   	        Calls       Base Space   Used Autos Params    Refs
 ---------------------------------------------------------------------------------
 (0) _main                                                 0     0      0   79518
                        _check_level
                           _init_adc
                        _init_others
                         _init_ports
                    _receive_message
                       _send_message
                     _update_display
 ---------------------------------------------------------------------------------
 (1) _update_display                                       8     8      0   16910
                                             28 COMRAM     8     8      0
                            ___awdiv
                            ___awmod
                            ___lwdiv
                            ___lwmod
                             ___wmul
 ---------------------------------------------------------------------------------
 (2) ___lwmod                                              5     1      4     767
                                             21 COMRAM     5     1      4
                            ___lwdiv (ARG)
 ---------------------------------------------------------------------------------
 (1) _send_message                                         0     0      0   16301
                            ___awdiv
                            ___awmod
                           _buf_push
 ---------------------------------------------------------------------------------
 (1) _receive_message                                      1     1      0   40587
                                             44 COMRAM     1     1      0
                        _buf_isempty
                            _buf_pop
                       _disable_rxtx
                        _enable_rxtx
                       _eval_message
 ---------------------------------------------------------------------------------
 (2) _eval_message                                        25    25      0   40225
                                             36 COMRAM     8     8      0
                                              0 BANK0     17    17      0
                            ___awdiv
                            ___awmod
                            ___lwdiv
                           _buf_push
                            _dequeue
                       _disable_rxtx
                        _enable_rxtx
                            _enqueue
           _find_park_available_slot
                        _find_parked
                    _find_subscribed
                            _is_same
 ---------------------------------------------------------------------------------
 (3) _is_same                                             11     5      6    1542
                                             14 COMRAM    11     5      6
 ---------------------------------------------------------------------------------
 (3) _find_subscribed                                     16    10      6    6177
                                             20 COMRAM    16    10      6
                             ___wmul
 ---------------------------------------------------------------------------------
 (3) _find_parked                                         16    10      6    6177
                                             20 COMRAM    16    10      6
                             ___wmul
 ---------------------------------------------------------------------------------
 (3) _find_park_available_slot                            16    10      6    6456
                                             20 COMRAM    16    10      6
                             ___wmul
 ---------------------------------------------------------------------------------
 (3) _enqueue                                              2     0      2     211
                                             14 COMRAM     2     0      2
 ---------------------------------------------------------------------------------
 (3) _enable_rxtx                                          0     0      0       0
 ---------------------------------------------------------------------------------
 (3) _disable_rxtx                                         0     0      0       0
 ---------------------------------------------------------------------------------
 (3) _dequeue                                              7     5      2     133
                                             14 COMRAM     7     5      2
 ---------------------------------------------------------------------------------
 (2) _buf_push                                             4     3      1    6963
                                             28 COMRAM     4     3      1
                            ___awdiv (ARG)
                            ___awmod (ARG)
 ---------------------------------------------------------------------------------
 (2) ___lwdiv                                              7     3      4     961
                                             14 COMRAM     7     3      4
 ---------------------------------------------------------------------------------
 (2) ___awmod                                              6     2      4    5473
                                             22 COMRAM     6     2      4
                            ___awdiv (ARG)
 ---------------------------------------------------------------------------------
 (2) ___awdiv                                              8     4      4    3865
                                             14 COMRAM     8     4      4
 ---------------------------------------------------------------------------------
 (2) _buf_pop                                              4     4      0     222
                                             19 COMRAM     4     4      0
                        _buf_isempty
 ---------------------------------------------------------------------------------
 (3) _buf_isempty                                          5     3      2      44
                                             14 COMRAM     5     3      2
 ---------------------------------------------------------------------------------
 (1) _init_ports                                           0     0      0       0
 ---------------------------------------------------------------------------------
 (1) _init_others                                          2     2      0    5653
                                             20 COMRAM     2     2      0
                             ___wmul
 ---------------------------------------------------------------------------------
 (2) ___wmul                                               6     2      4    5492
                                             14 COMRAM     6     2      4
 ---------------------------------------------------------------------------------
 (1) _init_adc                                             0     0      0       0
 ---------------------------------------------------------------------------------
 (1) _check_level                                          4     4      0      67
                                             14 COMRAM     4     4      0
 ---------------------------------------------------------------------------------
 Estimated maximum stack depth 3
 ---------------------------------------------------------------------------------
 (Depth) Function   	        Calls       Base Space   Used Autos Params    Refs
 ---------------------------------------------------------------------------------
 (5) _HandleInterrupt                                      5     5      0     513
                                              9 COMRAM     5     5      0
                          _disable_i
                           _enable_i
                      i2_buf_isempty
                          i2_buf_pop
                         i2_buf_push
 ---------------------------------------------------------------------------------
 (6) i2_buf_push                                           4     3      1     202
                                              0 COMRAM     4     3      1
 ---------------------------------------------------------------------------------
 (6) i2_buf_pop                                            4     4      0     222
                                              5 COMRAM     4     4      0
                      i2_buf_isempty
 ---------------------------------------------------------------------------------
 (7) i2_buf_isempty                                        5     3      2      44
                                              0 COMRAM     5     3      2
 ---------------------------------------------------------------------------------
 (6) _enable_i                                             0     0      0       0
 ---------------------------------------------------------------------------------
 (6) _disable_i                                            0     0      0       0
 ---------------------------------------------------------------------------------
 Estimated maximum stack depth 7
 ---------------------------------------------------------------------------------

 Call Graph Graphs:

 _main (ROOT)
   _check_level
   _init_adc
   _init_others
     ___wmul
   _init_ports
   _receive_message
     _buf_isempty
     _buf_pop
       _buf_isempty
     _disable_rxtx
     _enable_rxtx
     _eval_message
       ___awdiv
       ___awmod
         ___awdiv (ARG)
       ___lwdiv
       _buf_push
         ___awdiv (ARG)
         ___awmod (ARG)
           ___awdiv (ARG)
       _dequeue
       _disable_rxtx
       _enable_rxtx
       _enqueue
       _find_park_available_slot
         ___wmul
       _find_parked
         ___wmul
       _find_subscribed
         ___wmul
       _is_same
   _send_message
     ___awdiv
     ___awmod
       ___awdiv (ARG)
     _buf_push
       ___awdiv (ARG)
       ___awmod (ARG)
         ___awdiv (ARG)
   _update_display
     ___awdiv
     ___awmod
       ___awdiv (ARG)
     ___lwdiv
     ___lwmod
       ___lwdiv (ARG)
     ___wmul

 _HandleInterrupt (ROOT)
   _disable_i
   _enable_i
   i2_buf_isempty
   i2_buf_pop
     i2_buf_isempty
   i2_buf_push

 Address spaces:
Name               Size   Autos  Total    Cost      Usage
BIGRAM             F5F      0     14E      37        8.5%
EEDATA             400      0       0       0        0.0%
BITBANK14          100      0       0      33        0.0%
BANK14             100      0       0      34        0.0%
BITBANK13          100      0       0      30        0.0%
BANK13             100      0       0      31        0.0%
BITBANK12          100      0       0      28        0.0%
BANK12             100      0       0      29        0.0%
BITBANK11          100      0       0      26        0.0%
BANK11             100      0       0      27        0.0%
BITBANK10          100      0       0      24        0.0%
BANK10             100      0       0      25        0.0%
BITBANK9           100      0       0      22        0.0%
BANK9              100      0       0      23        0.0%
BITBANK8           100      0       0      20        0.0%
BANK8              100      0       0      21        0.0%
BITBANK7           100      0       0      18        0.0%
BANK7              100      0       0      19        0.0%
BITBANK6           100      0       0      16        0.0%
BANK6              100      0       0      17        0.0%
BITBANK5           100      0       0      14        0.0%
BANK5              100      0       0      15        0.0%
BITBANK4           100      0       0      12        0.0%
BANK4              100      0       0      13        0.0%
BITBANK3           100      0       0      10        0.0%
BANK3              100      0       0      11        0.0%
BITBANK2           100      0       0       8        0.0%
BANK2              100      0     100       9      100.0%
BITBANK1           100      0       0       6        0.0%
BANK1              100      0     100       7      100.0%
BITBANK0            A0      0       0       4        0.0%
BANK0               A0     11      51       5       50.6%
BITBANK15           60      0       0      35        0.0%
BANK15              60      0       0      36        0.0%
BITCOMRAM           5E      0       0       0        0.0%
COMRAM              5E     2D      4C       1       80.9%
BITSFR               0      0       0     200        0.0%
SFR                  0      0       0     200        0.0%
STACK                0      0       0       2        0.0%
NULL                 0      0       0       0        0.0%
ABS                  0      0     29D      32        0.0%
DATA                 0      0     3EB       3        0.0%
CODE                 0      0       0       0        0.0%


Microchip Technology PIC18 Macro Assembler V2.30 build 20200825195618 
Symbol Table                                                                                   Fri May 30 22:21:03 2025

                   ??_disable_rxtx 000F                                  _q 0060  
                     ___awdiv@sign 0014                ___wmul@multiplicand 0011  
                   _update_display 2452                   ?_receive_message 0001  
                              l201 3556                                l113 3562  
                              l130 2450                                l116 355C  
                              l205 2CF8                                l206 2D1E  
                              l217 2C52                                l162 3506  
                              l146 294A                                l138 27EA  
                              l154 267A                                l227 10FC  
                              l180 32F6                                l228 2144  
                              l173 3486                                l270 2136  
                              l158 267A                                l319 352C  
                              l184 306C                                l169 2FD6  
                              l178 32DC                                l194 3280  
                              l266 1E6C                                l187 3050  
                              l275 2F3C                                l278 3106  
                              l198 3548                                l550 2DE2  
                              l287 3186                                l810 33D8  
                              l563 2E92                                l820 343C  
                              l817 33E0                                l827 3444  
                     find_parked@j 0023                       find_parked@k 0021  
                     ___awmod@sign 001C                                prod 000FF3  
                              wreg 000FE8                         _TXSTA1bits 000FAC  
                      buf_push@buf 001D                        _total_score 008A  
                             l2032 347E                               l2024 3448  
                             l3000 2E5E                               l2026 3472  
                             l3010 2E8A                               l3002 2E66  
                       i2_buf_push 32F8                               l3004 2E6C  
                             l3020 3390                               l3100 138A  
                             l3006 2E72                               l3030 33CA  
                             l3022 3398                               l3014 336E  
                             l3110 1408                               l3102 13AC  
                             l3008 2E82                               l3032 33CC  
                             l3024 33A6                               l3016 3376  
                             l3200 1962                               l3120 1434  
                             l3112 140C                               l3104 13C8  
                             l3040 1056                               l2170 2FF8  
                             l2162 2FDA                               l3034 33D2  
                             l3026 33AC                               l3018 3388  
                             l3210 19BE                               l3202 196C  
                             l3130 14E8                               l3122 1468  
                             l3114 1416                               l3106 13D4  
                             l3050 10D6                               l3042 105C  
                             l2172 3008                               l2164 2FF2  
                             l3028 33C2                               l3300 1E70  
                             l3220 1A9A                               l3212 19F2  
                             l3204 1976                               l3132 1508  
                             l3124 149C                               l3116 1420  
                             l3108 1402                               l3060 1134  
                             l3052 10E8                               l3140 152A  
                             l3044 108A                               l3036 1020  
                             l2174 302E                               l3310 1EB4  
                             l3302 1E90                               l3230 1BC4  
                             l3222 1AC0                               l3214 1A12  
                             l3206 1980                               l3150 15BC  
                             l3142 1558                               l3134 1512  
                             l3126 14BC                               l3118 142A  
                             l3070 1268                               l3062 1148  
                             l3054 1100                               l3046 1096  
                             l3038 104E                               l3320 1FA4  
                             l3312 1EBE                               l3304 1E96  
                             l3240 1BFC                               l3232 1BDA  
                             l3224 1ACC                               l3216 1A46  
                             l3208 198A                               l3160 1620  
                             l3152 15CC                               l3144 156A  
                             l3128 14C8                               l3080 1294  
                             l3072 126C                               l3064 1174  
                             l3056 1110                               l3048 10C4  
                             l3400 2B88                               l2178 306A  
                             l3330 2114                               l3322 2000  
                             l3314 1EF2                               l3306 1EA0  
                             l3250 1C98                               l3242 1C06  
                             l3234 1BE4                               l3226 1B20  
                             l3218 1A7A                               l3170 1756  
                             l3162 167E                               l3154 15E0  
                             l3146 1598                               l3138 151A  
                             l3090 1348                               l3082 12C8  
                             l3074 1276                               l3066 11A2  
                             l3058 1124                               l3410 2BCC  
                             l3402 2B90                               l3324 205C  
                             l3332 2122                               l3316 1F26  
                             l3308 1EAA                               l3252 1CA4  
                             l3244 1C10                               l3236 1BE8  
                             l3228 1B72                               l3180 17F2  
                             l3172 1760                               l3164 1738  
                             l3156 15F0                               l3148 15A8  
                             l3092 1368                               l3084 12FC  
                             l3076 1280                               l3068 125E  
                             l3420 2C10                               l3412 2BDE  
                             l3404 2B94                               l3340 2470  
                             l2630 3154                               l2622 3104  
                             l3326 2100                               l3318 1F46  
                             l3270 1D78                               l3254 1CC4  
                             l3246 1C44                               l3238 1BF2  
                             l3190 1896                               l3182 17FC  
                             l3174 176A                               l3166 1742  
                             l3158 1604                               l3262 1CFA  
                             l3094 1372                               l3086 131C  
                             l3078 128A                               l3422 2C26  
                             l3414 2BEE                               l3406 2BA6  
                             l3430 2EA6                               l3350 2580  
                             l3342 2478                               l2632 3160  
                             l2624 3114                               l2552 352E  
                             l2800 23FC                               l3328 210A  
                             l3280 1DD4                               l3272 1D8C  
                             l3264 1D28                               l3256 1CE4  
                             l3248 1C78                               l3192 189E  
                             l3184 1806                               l3176 179E  
                             l3168 174C                               l3088 1328  
                             l3424 2C36                               l3416 2BF2  
                             l3408 2BBA                               l3432 2EA8  
                             l3360 2606                               l3352 25BA  
                             l3344 2550                               l3336 2452  
                             l3440 2954                               l2634 3172  
                             l2626 3136                               l2554 3536  
                             l2810 242C                               l3282 1DE6  
                             l3290 1E20                               l3274 1D9C  
                             l3266 1D3A                               l3258 1CEE  
                             l3194 18F0                               l3186 1810  
                             l3178 17D2                               l3098 137E  
                             l3418 2BFE                               l3426 2C3A  
                             l3434 2EB4                               l2490 3412  
                             l2482 33E2                               l3370 2662  
                             l3362 261A                               l3346 2578  
                             l3354 25E0                               l3338 245E  
                             l3450 298C                               l3442 2958  
                             l2636 317E                               l2628 3142  
                             l2556 354A                               l2900 2FBC  
                             l2812 2448                               l2804 2408  
                             l3292 1E32                               l3284 1DF8  
                             l3276 1DB0                               l3268 1D68  
                             l3196 1942                               l3188 181E  
                             l3436 2F3A                               l3428 2E94  
                             l2492 3428                               l2484 33F4  
                             l3372 266E                               l3364 262A  
                             l3356 25E4                               l3348 257C  
                             l3460 29B6                               l3452 2994  
                             l3444 296C                               l3390 2D04  
                             l3374 2C54                               l2910 3284  
                             l2902 2FC2                               l2806 240C  
                             l2830 26F6                               l2822 2684  
                             l3286 1E0A                               l3278 1DC0  
                             l3198 1958                               l2494 3430  
                             l2486 33FC                               l3366 263E  
                             l3358 25F6                               l3470 29E2  
                             l3462 29BE                               l3454 2998  
                             l3446 2974                               l3438 294C  
                             l3392 2D16                               l3384 2C8A  
                             l3376 2C5C                               l2912 3294  
                             l2808 2428                               l2832 275A  
                             l2840 27A2                               l2816 267C  
                             l2920 3212                               l3296 1E48  
                             l2496 3436                               l2488 3404  
                             l3368 264E                               l3480 2A34  
                             l3472 29F6                               l3464 29C2  
                             l3456 29AA                               l3448 2978  
                             l3394 2D18                               l3386 2CD8  
                             l3378 2C78                               l2914 32BA  
                             l2906 2FCE                               l2770 355E  
                             l2842 27A6                               l2834 2786  
                             l2930 3278                               l2922 324A  
                             l3298 1E58                               l3482 2A44  
                             l3474 2A08                               l3466 29D6  
                             l3458 29B2                               l2764 3508  
                             l3388 2CDC                               l2940 2D3A  
                             l2772 3558                               l2780 214E  
                             l2852 27EC                               l2844 27C2  
                             l2836 2796                               l2828 268C  
                             l3396 2B80                               l3484 2A5E  
                             l3476 2A1C                               l3468 29DE  
                             l2766 3524                               l2950 2D60  
                             l2942 2D3E                               l2934 2D20  
                             l2790 221E                               l2774 2146  
                             l2870 28F6                               l2846 27C6  
                             l2926 3256                               l2918 3206  
                             l3398 2B84                               l3478 2A24  
                             l3486 2A62                               l2960 2D96  
                             l2952 2D72                               l2944 2D4C  
                             l2936 2D24                               l2792 2282  
                             l2880 292E                               l2864 27FC  
                             l2848 27E2                               l2928 325A  
                             l2962 2DAC                               l2954 2D7A  
                             l2970 2DC2                               l2946 2D54  
                             l2938 2D32                               l2890 2F5A  
                             l2882 34CA                               l2794 23B6  
                             l2786 2156                               l2866 2866  
                             l2874 290A                               l2858 27F4  
                             l2972 2DD2                               l2964 2DB4  
                             l2956 2D82                               l2948 2D58  
                             l2980 2DE8                               l2892 2F62  
                             l2884 34E8                               l2796 23C0  
                             l2788 21BA                               l2876 290E  
                             l2868 28CA                               l2974 2DDA  
                             l2966 2DB6                               l2958 2D90  
                             l2990 2E18                               l2982 2DF6  
                             l2894 2F6E                               l2886 3502  
                             l2798 23EC                               l2878 292A  
                             l2968 2DBC                               l2992 2E2A  
                             l2984 2DFE                               l2896 2F9A  
                             l2888 2F3E                               l2994 2E32  
                             l2986 2E02                               l2978 2DE4  
                             l2898 2F9E                               l2996 2E3A  
                             l2988 2E10                               l2998 2E48  
                             STR_1 101B                               STR_2 101B  
                             STR_3 100F                               STR_4 100F  
                             STR_5 1013                               STR_6 1013  
                             STR_7 1017                               STR_8 1017  
                             STR_9 100B                               u1400 3472  
                             u3000 15DC                               u2040 33F4  
                             u1401 346E                               u3001 15D8  
                             u2041 33F0                               u2210 3114  
                             u3010 15F0                               u2050 3412  
                             u2211 3110                               u3011 15EC  
                             u2051 340E                               u2220 3136  
                             u3100 1DAC                               u3020 1600  
                             u2060 3428                               u2221 3132  
                             u3101 1DA8                               u3021 15FC  
                             u2061 3424                               u2230 3154  
                             u3110 1DC0                               u3030 167E  
                             u2231 3150                               u3111 1DBC  
                             u3031 167A                               u2240 3172  
                             u1600 3008                               u3200 1E68  
                             u3120 1DD0                               u3040 1AC0  
                             u2241 316E                               u1601 3004  
                             u3201 1E64                               u3121 1DCC  
                             u3041 1ABC                               u3210 1FA4  
                             u3130 1DE6                               u3050 1D28  
                             u3211 1FA0                               u3131 1DE2  
                             u3051 1D24                               u2500 2428  
                             u3220 2000                               u3140 1DF8  
                             u3060 1D3A                               u3300 2BA6  
                             u2501 2424                               u3221 1FFC  
                             u3141 1DF4                               u3061 1D36  
                             u3301 2BA2                               u2510 2448  
                             u3230 205C                               u3150 1E0A  
                             u3070 1D78                               u3310 2BCC  
                             _LATJ 000F91                               u2511 2444  
                             u3231 2058                               u3151 1E06  
                             u3071 1D74                               u3311 2BC8  
                             u2600 34E8                               u2520 26F6  
                             u3160 1E1C                               u3080 1D88  
                             u3320 2BDE                               u3240 2470  
                             u3400 29D6                               u2601 34E4  
                             u2521 26F2                               u3161 1E18  
                             u3081 1D84                               u3321 2BDA  
                             u3241 246C                               u3401 29D2  
                             u2610 2F5A                               u2530 275A  
                             u3170 1E32                               u3090 1D9C  
                             u3330 2C10                               u3250 25F6  
                             u3410 29F6                               u2611 2F56  
                             u2531 2756                               u3171 1E2E  
                             u3091 1D98                               u3331 2C0C  
                             u3251 25F2                               u3411 29F2  
                             u2700 2DAC                               u2620 2FBC  
                             u2540 27C2                               u3180 1E44  
                             u3340 2C26                               u3260 261A  
                             u3420 2A1C                               u2701 2DA8  
                             u2621 2FB8                               u2541 27BE  
                             u3181 1E40                               u3341 2C22  
                             u3261 2616                               u3421 2A18  
                             u1590 2FF2                               u2710 2DD2  
                             u2630 3294                               u2470 21BA  
                             u2550 27E2                               u3190 1E58  
                             u3350 2C52                               u3270 263E  
                             u3430 2A34                               u1591 2FEE  
                             u2711 2DCE                               u2631 3290  
                             u2471 21B6                               u2551 27DE  
                             u3191 1E54                               u3351 2C4E  
                             u3271 263A                               u3431 2A30  
                             u2720 2DF6                               u2800 33C2  
                             u2480 221E                               u2560 2866  
                             u2640 324A                               u3360 2EA6  
                             u3280 2662                               u3440 2A44  
                             u2721 2DF2                               u2801 33BE  
                             u2481 221A                               u2561 2862  
                             u2641 3246                               u3361 2EA2  
                             u3281 265E                               u3441 2A40  
                             u3290 2CF8                               u2730 2E10  
                             u2490 2282                               u2570 28CA  
                             u2650 3278                               u2810 104E  
                             u3450 2A58                               u3370 296C  
                             u3291 2CF4                               u2731 2E0C  
                             u2491 227E                               u2571 28C6  
                             u2651 3274                               u2811 104A  
                             u3451 2A52                               u3371 2968  
                             u2660 2D32                               u2740 2E2A  
                             u2580 292A                               u2900 1144  
                             u2820 108A                               u3460 2A5A  
                             u3380 298C                               u2661 2D2E  
                             u2741 2E26                               u2581 2926  
                             u2901 1140                               u2821 1086  
                             u3381 2988                               u2670 2D4C  
                             u2750 2E48                               u2590 294A  
                             u2910 11A2                               u2830 10C4  
                             u3390 29AA                               u2671 2D48  
                             u2751 2E44                               u2591 2946  
                             u2911 119E                               u2831 10C0  
                             u3391 29A6                               u2680 2D72  
                             u2760 2E5E                               u2920 13AC  
                             u2840 10D6                               u2681 2D6E  
                             u2761 2E5A                               u2921 13A8  
                             u2841 10D2                               u2690 2D90  
                             u2770 2E82                               u2930 13C8  
                             u2850 10E8                               u2691 2D8C  
                             u2771 2E7E                               u2931 13C4  
                             u2851 10E4                               u2780 3388  
                             u2940 1402                               u2860 10F8  
                             u2781 3384                               u2941 13FE  
                             u2861 10F4                               u2790 33A6  
                             u2950 1558                               u2870 1110  
                             u2791 33A2                               u2951 1554  
                             u2871 110C                               u2960 156A  
                             u2880 1120                               u2961 1566  
                             u2881 111C                               u2970 15A8  
                             u2890 1134                               u2971 15A4  
                             u2891 1130                               u2980 15B8  
                             u2981 15B4                               u2990 15CC  
                             u2991 15C8                               _PIR1 000F9E  
                    find_parked@id 0015                               _head 0044  
                             _main 294C                               _park 0300  
                             _tail 0042                               fsr1h 000FE2  
                             fsr2h 000FDA                               indf1 000FE7  
                             indf2 000FDF                               fsr1l 000FE1  
                             fsr2l 000FD9                               btemp 004D  
     find_park_available_slot@slot 0017                               prodh 000FF4  
                             prodl 000FF3                               start 000E  
                     ___param_bank 000000                        _switch_flag 0084  
             eval_message@tmp_slot 00AC             __end_of_update_display 267C  
                       i2buf_pop@v 0008                       _BAUDCON1bits 000F7E  
                            ?_main 0001                    __end_of___awdiv 2DE4  
                            STR_10 100B                      ?_eval_message 0001  
                  __end_of___awmod 2E94                              _T0CON 000FD5  
                  ___awdiv@divisor 0011                    __end_of___lwdiv 33E2  
                  __end_of___lwmod 3446                              i2l122 3568  
                            i2l301 2B6C                              i2l119 356E  
                            i2l180 336C                              i2l173 34C8  
                            i2l184 3102                              i2l178 3352  
                            i2l187 30E6                    ___awdiv@counter 0013  
                            _TMR0H 000FD7                              _TMR0L 000FD6  
                            _TRISB 000F93                              _TRISH 000F99  
                            _TRISJ 000F9A                       ?_init_others 0001  
                  __end_of_dequeue 2FD8                    __end_of_buf_pop 306E  
             __size_of_check_level 0084                    __end_of_enqueue 3508  
                            _inbuf 0100                    __end_of_is_same 3282  
                            tablat 000FF5                              plusw2 000FDB  
                            ttemp5 004E                              ttemp6 0051  
                            ttemp7 0055                              status 000FD8  
                            wtemp8 004E                    __initialization 3188  
                     __end_of_main 2A6E                 __size_ofi2_buf_pop 0096  
                  ?_update_display 0001                 update_display@bit0 0020  
               update_display@bit1 001F                 update_display@bit2 001E  
               update_display@bit3 001D                  ??_HandleInterrupt 000A  
                   ??_eval_message 0025         ??_find_park_available_slot 001B  
                           ??_main 002E                     buf_isempty@typ 0013  
                    __activetblptr 000001                        i2buf_push@v 0004  
         eval_message@tmp_slot_686 00AE                             _ADCON1 000FC1  
                           _ADCON2 000FC0               __size_of_enable_rxtx 0006  
                           _ADRESH 000FC4                             _ADRESL 000FC3  
             __end_of_disable_rxtx 3564                   ___awdiv@dividend 000F  
                      ?i2_buf_push 0001                             i2l2500 34B4  
                           i2l2510 356A                             i2l2512 3564  
                           i2l2506 34C0                             i2l2700 2B22  
                           i2l2710 2B60                             i2l2702 2B30  
                           i2l2640 330A                             i2l2712 2B68  
                           i2l2704 2B48                             i2l2642 3330  
                           i2l2706 2B56                             i2l2708 2B5C  
                           i2l2662 3100                             i2l2654 308E  
                           i2l2646 3070                             i2l2638 32FA  
                           i2l2670 2A90                             i2l2656 309E  
                           i2l2648 3088                             i2l2680 2ACE  
                           i2l2672 2A98                             i2l2498 348A  
                           i2l2658 30C4                             i2l2690 2AF4  
                           i2l2682 2AD0                             i2l2674 2AAA  
                           i2l2666 2A80                             i2l2692 2AF8  
                           i2l2684 2AD8                             i2l2668 2A8E  
                           i2l2676 2AB2                             i2l2694 2B02  
                           i2l2678 2AC0                             i2l2686 2AE2  
                           i2l2696 2B06                             i2l2688 2AF0  
                           i2l2698 2B18                             _RCREG1 000FAE  
                           _RCSTA1 000FAB                  _send_message_flag 0086  
                           _SPBRG1 000FAF                             _TXREG1 000FAD  
                           _TXSTA1 000FAC                find_subscribed@slot 0017  
                 __end_of_enable_i 356A               __size_of_find_parked 0160  
             __size_of_buf_isempty 0042                   __end_of_buf_push 32F8  
                  find_parked@slot 0019                             ___wmul 3508  
                        ??___awdiv 0013                          ??___awmod 001B  
                        ??___lwdiv 0013                          ??___lwmod 001A  
                           _buffer 008C                   __end_of_init_adc 354A  
                           clear_0 31A8                             clear_1 31BC  
                           clear_2 31D0                             clear_3 31E2  
                           clear_4 31EE                   ___awdiv@quotient 0015  
                           _tick_5 003A                    ___awmod@divisor 0019  
                  ___awmod@counter 001B                             _outbuf 0200  
                        ??_dequeue 0011                          ??_buf_pop 0014  
                 __end_of_seg_list 100B                          ??_enqueue 0011  
                        ??_is_same 0015                       __pdataCOMRAM 004B  
                     __mediumconst 0000                   receive_message@c 002D  
           __size_ofi2_buf_isempty 0042                             tblptrh 000FF7  
                           tblptrl 000FF6                             tblptru 000FF8  
                __end_ofi2_buf_pop 3104                         __accesstop 0060  
          __end_of__initialization 31F4                      ___rparam_used 000001  
         __size_of_find_subscribed 0170                     __pcstackCOMRAM 0001  
              __size_ofi2_buf_push 0076                update_display@empty 0021  
               __size_of_disable_i 0006               __size_of_init_others 00CC  
                       __pbssBANK0 0060                         __pbssBANK1 0100  
                       __pbssBANK2 0200                       i2buf_pop@buf 0009  
                    _current_level 003C               __end_of_eval_message 2146  
                    i2_buf_isempty 3488                      _level_counter 0040  
                          ?___wmul 000F   __end_of_find_park_available_slot 2452  
                    ?_send_message 0001              __size_of_disable_rxtx 0006  
                          _SPBRGH1 000F7F                          ?_enable_i 0001  
         __size_of_receive_message 00D4                          ?_buf_push 001D  
                        ?_init_adc 0001               find_subscribed@level 0015  
                  _HandleInterrupt 0008                     ?i2_buf_isempty 0001  
                 ??_update_display 001D                            __Hparam 0000  
                __end_of_disable_i 3570                            __Lparam 0000  
                          ___awdiv 2D20                            ___awmod 2DE4  
                 find_parked@level 0017                    __size_of___wmul 0026  
                ??_find_subscribed 001B                            ___lwdiv 336E  
                     _disable_rxtx 355E                            ___lwmod 33E2  
                     __psmallconst 1000                     ??_send_message 0021  
                          __pcinit 3188                         _init_ports 354A  
                          __ramtop 1000                            _chr_buf 004A  
                          __ptext0 294C                            __ptext1 2452  
                          __ptext2 33E2                            __ptext3 2E94  
                          __ptext4 2B80                            __ptext5 1020  
                          __ptext6 3206                            __ptext7 267C  
                          __ptext8 27EC                            __ptext9 2146  
                          _dequeue 2F3E                            _buf_pop 2FD8  
                        _T0CONbits 000FD5                            _enqueue 34CA  
                    ??_check_level 000F                            _is_same 3206  
                 ___awmod@dividend 0017                            _msg_len 0030  
                          _temp_id 0038                         ??_enable_i 0001  
                     ??i2_buf_push 0002                         ??_buf_push 001E  
                   __pintcode_body 2A6E               end_of_initialization 31F4  
                       ??_init_adc 000F                            int_func 2A6E  
        find_park_available_slot@j 0021          find_park_available_slot@k 0023  
                     init_others@k 0015                            postdec1 000FE5  
                          postdec2 000FDD                            postinc0 000FEE  
                          postinc1 000FE6                            postinc2 000FDE  
               __end_ofi2_buf_push 336E                          _PORTBbits 000F81  
                     _display_mode 0032                      ??_enable_rxtx 000F  
            __size_of_eval_message 1126            __end_of_HandleInterrupt 2B80  
                       buf_pop@buf 0017                __end_of_check_level 3188  
__size_of_find_park_available_slot 030C          ?_find_park_available_slot 0015  
                  ??i2_buf_isempty 0003                      ??_find_parked 001B  
                        i2_buf_pop 306E                      ??_buf_isempty 0011  
                ??_receive_message 002D                eval_message@slot_no 00A7  
              eval_message@tmp_lvl 00AB                     __end_of___wmul 352E  
                find_subscribed@id 0019                      __pidataCOMRAM 3570  
                      ?_init_ports 0001                       _eval_message 1020  
              start_initialization 3188    find_park_available_slot@temp_id 0019  
          eval_message@tmp_lvl_687 00B0                  update_display@val 0023  
              __end_of_enable_rxtx 355E               __end_of_send_message 2F3E  
                       ?i2_buf_pop 0001                __end_of_find_parked 294C  
                         ??___wmul 0013                __end_of_buf_isempty 3488  
                      __pbssBIGRAM 0300                        __pbssCOMRAM 002E  
                      _check_level 3104                      ??_init_others 0015  
               check_level@adc_val 0011                      __pcstackBANK0 00A0  
                    i2buf_push@buf 0001                   ?_HandleInterrupt 0001  
                __size_of_enable_i 0006                  __size_of_buf_push 0076  
                  _find_subscribed 267C                __size_of_init_ports 000E  
                __size_of_init_adc 001C                   ___lwdiv@dividend 000F  
                    enqueue@car_id 000F                          __pintcode 0008  
                         ?___awdiv 000F                           ?___awmod 0017  
                        _disable_i 356A                           ?___lwdiv 000F  
                         ?___lwmod 0016                           ?_dequeue 000F  
                 _new_message_flag 0036                           ?_buf_pop 0001  
                      __smallconst 1000                           ?_enqueue 000F  
                         ?_is_same 000F                          _in_packet 002E  
                      _enable_rxtx 3558      find_park_available_slot@level 0015  
                  _message_counter 003E                   ___lwdiv@quotient 0014  
                     _message_flag 0088                __end_of_init_others 2D20  
                   ___wmul@product 0013                        ??i2_buf_pop 0006  
                         _LATHbits 000F90                        _find_parked 27EC  
                 HandleInterrupt@c 000E                           _PIE1bits 000F9D  
                      _buf_isempty 3446                           i2u230_40 2AC0  
                         i2u230_41 2ABC                           i2u207_40 34B4  
                         i2u231_40 2ACE                           i2u207_41 34B0  
                         i2u231_41 2ACA                           i2u232_40 2AF0  
                         i2u232_41 2AEC                           i2u225_40 330A  
                         i2u233_40 2B18                           i2u225_41 3306  
                         i2u233_41 2B14                           i2u226_40 3088  
                         i2u234_40 2B30                           i2u226_41 3084  
                         i2u234_41 2B2C                           i2u227_40 309E  
                         i2u235_40 2B48                           i2u227_41 309A  
                         i2u235_41 2B44                           i2u236_40 2B56  
                         i2u228_40 2A8E                           i2u236_41 2B52  
                         i2u228_41 2A8A                           i2u229_40 2AAA  
                         i2u229_41 2AA6                           _PIR1bits 000F9E  
                       ?_disable_i 0001                 eval_message@id_691 00A2  
               eval_message@id_685 00A9                         _ADCON0bits 000FC2  
                ___wmul@multiplier 000F                          buf_push@v 0020  
               eval_message@lvl_no 00A6                    _receive_message 2B80  
            __size_of_send_message 00AA            __end_of_find_subscribed 27EC  
                 find_subscribed@j 0023                   find_subscribed@k 0021  
                         __Hrparam 0000                           __Lrparam 0000  
                     __Lsmallconst 1000                   __size_of___awdiv 00C4  
                 __size_of___awmod 00B0                   __size_of___lwdiv 0074  
                 __size_of___lwmod 0064                       ??_init_ports 000F  
                     _send_message 2E94            __size_of_update_display 022A  
                 __size_of_dequeue 009A                   __size_of_buf_pop 0096  
                 __size_of_enqueue 003E                   __size_of_is_same 007C  
                      _init_others 2C54                    ___lwdiv@divisor 0011  
                  ___lwdiv@counter 0013                           _enable_i 3564  
                         __ptext10 34CA                           __ptext11 3558  
                         __ptext20 354A                           __ptext12 355E  
                         __ptext21 2C54                           __ptext13 2F3E  
                         __ptext30 356A                           __ptext22 3508  
                         __ptext14 3282                           __ptext23 352E  
                         __ptext15 336E                           __ptext24 3104  
                         __ptext16 2DE4                           __ptext17 2D20  
                         __ptext26 32F8                           __ptext18 2FD8  
                         __ptext27 306E                           __ptext19 3446  
                         __ptext28 3488                           __ptext29 3564  
                         _buf_push 3282                           _curr_rb4 0048  
                         _init_adc 352E                      __size_of_main 0122  
               __end_of_init_ports 3558              __end_ofi2_buf_isempty 34CA  
                         _seg_list 1001                           _prev_rb4 0049  
                         dequeue@i 0014                           int$flags 004D  
                      ??_disable_i 0001                           _run_flag 0046  
                         buf_pop@v 0016            __end_of_receive_message 2C54  
                       _INTCONbits 000FF2                       ?_check_level 0001  
                         is_same@a 000F                           is_same@b 0011  
                         is_same@k 0018                           is_same@n 0013  
         _find_park_available_slot 2146                   ?_find_subscribed 0015  
                     _time_counter 004B                           intlevel2 0000  
                 ___lwmod@dividend 0016                      dequeue@car_id 0012  
                  _display_counter 0034                      ?_disable_rxtx 0001  
                  ___lwmod@divisor 0018                    ___lwmod@counter 001A  
                     ?_enable_rxtx 0001                    eval_message@fee 00A0  
                   eval_message@id 00A4                       ?_find_parked 0015  
                 i2buf_isempty@typ 0005                       ?_buf_isempty 000F  
         __size_of_HandleInterrupt 2B78  
